

Microchip MPLAB XC8 Assembler V2.45 build 20230818022343 
                                                                                               Tue Jun 18 17:57:32 2024

Microchip MPLAB XC8 C Compiler v2.45 (Free license) build 20230818022343 Og1 
     1                           	processor	18F4620
     2                           	fnconf	rparam,??,?,0
     3                           	pagewidth 120
     4                           	opt	flic
     5                           	psect	idataCOMRAM,global,class=CODE,delta=1,noexec
     6                           	psect	idataBANK0,global,class=CODE,delta=1,noexec
     7                           	psect	smallconst,global,reloc=2,class=SMALLCONST,delta=1,noexec
     8                           	psect	cinit,global,reloc=2,class=CODE,delta=1
     9                           	psect	bssCOMRAM,global,class=COMRAM,space=1,delta=1,lowdata,noexec
    10                           	psect	dataCOMRAM,global,class=COMRAM,space=1,delta=1,lowdata,noexec
    11                           	psect	bssBANK0,global,class=BANK0,space=1,delta=1,lowdata,noexec
    12                           	psect	dataBANK0,global,class=BANK0,space=1,delta=1,lowdata,noexec
    13                           	psect	cstackBANK0,global,class=BANK0,space=1,delta=1,lowdata,noexec
    14                           	psect	cstackCOMRAM,global,class=COMRAM,space=1,delta=1,lowdata,noexec
    15                           	psect	text0,global,reloc=2,class=CODE,delta=1
    16                           	psect	text1,global,reloc=2,class=CODE,delta=1
    17                           	psect	text2,global,reloc=2,class=CODE,delta=1
    18                           	psect	text3,global,reloc=2,class=CODE,delta=1
    19                           	psect	text4,global,reloc=2,class=CODE,delta=1
    20                           	psect	text5,global,reloc=2,class=CODE,delta=1
    21                           	psect	text6,global,reloc=2,class=CODE,delta=1
    22                           	psect	text7,global,reloc=2,class=CODE,delta=1
    23                           	psect	text8,global,reloc=2,class=CODE,delta=1
    24                           	psect	text9,global,reloc=2,class=CODE,delta=1
    25                           	psect	text10,global,reloc=2,class=CODE,delta=1
    26                           	psect	text11,global,reloc=2,class=CODE,delta=1
    27                           	psect	text12,global,reloc=2,class=CODE,delta=1
    28                           	psect	text13,global,reloc=2,class=CODE,delta=1
    29                           	psect	text14,global,reloc=2,class=CODE,delta=1
    30                           	psect	text15,global,reloc=2,class=CODE,delta=1
    31                           	psect	text16,global,reloc=2,class=CODE,delta=1
    32                           	psect	text17,global,reloc=2,class=CODE,delta=1
    33                           	psect	text18,global,reloc=2,class=CODE,delta=1
    34                           	psect	text19,global,reloc=2,class=CODE,delta=1
    35                           	psect	text20,global,reloc=2,class=CODE,delta=1
    36                           	psect	text21,global,reloc=2,class=CODE,delta=1
    37                           	psect	text22,global,reloc=2,class=CODE,delta=1
    38                           	psect	text23,global,reloc=2,class=CODE,delta=1
    39                           	psect	text24,global,reloc=2,class=CODE,delta=1,group=3
    40                           	psect	text25,global,reloc=2,class=CODE,delta=1,group=1
    41                           	psect	text26,global,reloc=2,class=CODE,delta=1,group=1
    42                           	psect	text27,global,reloc=2,class=CODE,delta=1,group=3
    43                           	psect	text28,global,reloc=2,class=CODE,delta=1,group=3
    44                           	psect	text29,global,reloc=2,class=CODE,delta=1,group=3
    45                           	psect	text30,global,reloc=2,class=CODE,delta=1,group=2
    46                           	psect	text31,global,reloc=2,class=CODE,delta=1,group=2
    47                           	psect	text32,global,reloc=2,class=CODE,delta=1,group=3
    48                           	psect	text33,global,reloc=2,class=CODE,delta=1
    49                           	psect	text34,global,reloc=2,class=CODE,delta=1
    50                           	psect	intcode,global,reloc=2,class=CODE,delta=1
    51                           	psect	intcode_body,global,reloc=2,class=CODE,delta=1
    52                           	psect	text36,global,reloc=2,class=CODE,delta=1
    53                           	psect	text37,global,reloc=2,class=CODE,delta=1
    54                           	psect	text38,global,reloc=2,class=CODE,delta=1
    55                           	psect	text39,global,reloc=2,class=CODE,delta=1
    56                           	psect	text40,global,reloc=2,class=CODE,delta=1
    57                           	psect	text41,global,reloc=2,class=CODE,delta=1
    58                           	psect	text42,global,reloc=2,class=CODE,delta=1
    59                           	psect	text43,global,reloc=2,class=CODE,delta=1
    60                           	psect	intsave_regs,global,class=BIGRAM,space=1,delta=1,noexec
    61                           	psect	text44,global,reloc=2,class=CODE,delta=1
    62                           	psect	rparam,global,class=COMRAM,space=1,delta=1,noexec
    63                           	psect	temp,global,ovrld,common,class=COMRAM,space=1,delta=1
    64                           	psect	config,global,abs,ovrld,class=CONFIG,space=4,delta=1,noexec
    65   000000                     
    66                           ; Generated 23/03/2023 GMT
    67                           ; 
    68                           ; Copyright © 2023, Microchip Technology Inc. and its subsidiaries ("Microchip")
    69                           ; All rights reserved.
    70                           ; 
    71                           ; This software is developed by Microchip Technology Inc. and its subsidiaries ("Microch
      +                          ip").
    72                           ; 
    73                           ; Redistribution and use in source and binary forms, with or without modification, are
    74                           ; permitted provided that the following conditions are met:
    75                           ; 
    76                           ;     1. Redistributions of source code must retain the above copyright notice, this lis
      +                          t of
    77                           ;        conditions and the following disclaimer.
    78                           ; 
    79                           ;     2. Redistributions in binary form must reproduce the above copyright notice, this 
      +                          list
    80                           ;        of conditions and the following disclaimer in the documentation and/or other
    81                           ;        materials provided with the distribution. Publication is not required when
    82                           ;        this file is used in an embedded application.
    83                           ; 
    84                           ;     3. Microchip's name may not be used to endorse or promote products derived from th
      +                          is
    85                           ;        software without specific prior written permission.
    86                           ; 
    87                           ; THIS SOFTWARE IS PROVIDED BY MICROCHIP "AS IS" AND ANY EXPRESS OR IMPLIED WARRANTIES,
    88                           ; INCLUDING, BUT NOT LIMITED TO, THE IMPLIED WARRANTIES OF MERCHANTABILITY AND FITNESS F
      +                          OR
    89                           ; PURPOSE ARE DISCLAIMED.  IN NO EVENT SHALL MICROCHIP BE LIABLE FOR ANY DIRECT, INDIREC
      +                          T,
    90                           ; INCIDENTAL, SPECIAL, EXEMPLARY, OR CONSEQUENTIAL DAMAGES (INCLUDING BUT NOT LIMITED TO
    91                           ; PROCUREMENT OF SUBSTITUTE GOODS OR SERVICES; LOSS OF USE, DATA OR PROFITS; OR BUSINESS
    92                           ; INTERRUPTION) HOWSOEVER CAUSED AND ON ANY THEORY OF LIABILITY, WHETHER IN CONTRACT, ST
      +                          RICT
    93                           ; LIABILITY, OR TORT (INCLUDING NEGLIGENCE OR OTHERWISE) ARISING IN ANY WAY OUT OF THE U
      +                          SE OF
    94                           ; THIS SOFTWARE, EVEN IF ADVISED OF THE POSSIBILITY OF SUCH DAMAGE.
    95                           ; 
    96                           ; 
    97                           ; Code-generator required, PIC18F4620 Definitions
    98                           ; 
    99                           ; SFR Addresses
   100   000000                     
   101                           	psect	idataCOMRAM
   102   002668                     __pidataCOMRAM:
   103                           	callstack 0
   104                           
   105                           ;initializer for _hours
   106   002668  09                 	db	9
   107                           
   108                           ;initializer for _min
   109   002669  3B                 	db	59
   110                           
   111                           ;initializer for _sec
   112   00266A  2D                 	db	45
   113                           
   114                           ;initializer for _keypad
   115   00266B  03                 	db	3
   116   00266C  0B                 	db	11
   117   00266D  13                 	db	19
   118   00266E  1B                 	db	27
   119   00266F  63                 	db	99
   120   002670  6B                 	db	107
   121   002671  73                 	db	115
   122   002672  7B                 	db	123
   123                           
   124                           ;initializer for _lcd
   125   002673  02                 	db	2
   126   002674  0A                 	db	10
   127   002675  12                 	db	18
   128   002676  1A                 	db	26
   129   002677  22                 	db	34
   130   002678  2A                 	db	42
   131                           
   132                           ;initializer for _clock
   133   002679  01                 	db	1
   134   00267A  09                 	db	9
   135   00267B  11                 	db	17
   136   00267C  19                 	db	25
   137   00267D  01                 	db	1
   138                           
   139                           ;initializer for _Line_S2
   140   00267E  28                 	db	40
   141                           
   142                           ;initializer for _Line_S1
   143   00267F  20                 	db	32
   144                           
   145                           ;initializer for _Line_M2
   146   002680  18                 	db	24
   147                           
   148                           ;initializer for _Line_M1
   149   002681  10                 	db	16
   150                           
   151                           ;initializer for _Line_H2
   152   002682  08                 	db	8
   153                           
   154                           	psect	idataBANK0
   155   00261E                     __pidataBANK0:
   156                           	callstack 0
   157                           
   158                           ;initializer for _port_registers
   159   00261E  80                 	db	128
   160   00261F  0F                 	db	15
   161   002620  81                 	db	129
   162   002621  0F                 	db	15
   163   002622  82                 	db	130
   164   002623  0F                 	db	15
   165   002624  83                 	db	131
   166   002625  0F                 	db	15
   167   002626  84                 	db	132
   168   002627  0F                 	db	15
   169                           
   170                           ;initializer for _lat_registers
   171   002628  89                 	db	137
   172   002629  0F                 	db	15
   173   00262A  8A                 	db	138
   174   00262B  0F                 	db	15
   175   00262C  8B                 	db	139
   176   00262D  0F                 	db	15
   177   00262E  8C                 	db	140
   178   00262F  0F                 	db	15
   179   002630  8D                 	db	141
   180   002631  0F                 	db	15
   181                           
   182                           ;initializer for _tris_registers
   183   002632  92                 	db	146
   184   002633  0F                 	db	15
   185   002634  93                 	db	147
   186   002635  0F                 	db	15
   187   002636  94                 	db	148
   188   002637  0F                 	db	15
   189   002638  95                 	db	149
   190   002639  0F                 	db	15
   191   00263A  96                 	db	150
   192   00263B  0F                 	db	15
   193                           
   194                           ;initializer for _delay
   195   00263C  90                 	db	low _TMR0_ISR
   196   00263D  21                 	db	high _TMR0_ISR
   197   00263E  00                 	db	0
   198   00263F  00                 	db	0
   199   002640  00                 	db	0
   200   002641  02                 	db	2
   201   002642  03                 	db	3
   202   002643  0BDC               	dw	3036
   203                           
   204                           	psect	smallconst
   205   001000                     __psmallconst:
   206                           	callstack 0
   207   001000  00                 	db	0
   208   001001                     _keypad_value@ecu_keypad$F379:
   209                           	callstack 0
   210   001001  07                 	db	7
   211   001002  08                 	db	8
   212   001003  09                 	db	9
   213   001004  2F                 	db	47
   214   001005  04                 	db	4
   215   001006  05                 	db	5
   216   001007  06                 	db	6
   217   001008  2A                 	db	42
   218   001009  01                 	db	1
   219   00100A  02                 	db	2
   220   00100B  03                 	db	3
   221   00100C  2D                 	db	45
   222   00100D  23                 	db	35
   223   00100E  00                 	db	0
   224   00100F  3D                 	db	61
   225   001010  2B                 	db	43
   226   001011                     __end_of_keypad_value@ecu_keypad$F379:
   227                           	callstack 0
   228   001011  FF                 	db	255
   229   001012                     __end_of_int_value:
   230                           	callstack 0
   231   000000                     _TMR3L	set	4018
   232   000000                     _TMR3H	set	4019
   233   000000                     _TMR1L	set	4046
   234   000000                     _TMR1H	set	4047
   235   000000                     _TMR0L	set	4054
   236   000000                     _TMR0H	set	4055
   237   000000                     _INTCON2bits	set	4081
   238   000000                     _EECON2	set	4007
   239   000000                     _EECON1bits	set	4006
   240   000000                     _EEDATA	set	4008
   241   000000                     _EEADR	set	4009
   242   000000                     _EEADRH	set	4010
   243   000000                     _INTCONbits	set	4082
   244   000000                     _PORTE	set	3972
   245   000000                     _PORTD	set	3971
   246   000000                     _PORTC	set	3970
   247   000000                     _PORTB	set	3969
   248   000000                     _PORTA	set	3968
   249   000000                     _LATA	set	3977
   250   000000                     _TRISA	set	3986
   251   000000                     _T3CONbits	set	4017
   252   000000                     _T2CONbits	set	4042
   253   000000                     _T1CONbits	set	4045
   254   000000                     _T0CONbits	set	4053
   255   000000                     _INTCON3bits	set	4080
   256   000000                     _PIE1bits	set	3997
   257   000000                     _TRISE	set	3990
   258   000000                     _TRISD	set	3989
   259   000000                     _TRISC	set	3988
   260   000000                     _TRISB	set	3987
   261   000000                     _LATE	set	3981
   262   000000                     _LATD	set	3980
   263   000000                     _LATC	set	3979
   264   000000                     _LATB	set	3978
   265   000000                     _PIE2bits	set	4000
   266   000000                     _PIR1bits	set	3998
   267   000000                     _PIR2bits	set	4001
   268   000000                     _TMR2	set	4044
   269   001012                     STR_6:
   270   001012  53                 	db	83	;'S'
   271   001013  65                 	db	101	;'e'
   272   001014  63                 	db	99	;'c'
   273   001015  6F                 	db	111	;'o'
   274   001016  6E                 	db	110	;'n'
   275   001017  64                 	db	100	;'d'
   276   001018  73                 	db	115	;'s'
   277   001019  20                 	db	32
   278   00101A  3D                 	db	61	;'='
   279   00101B  20                 	db	32
   280   00101C  5F                 	db	95	;'_'
   281   00101D  5F                 	db	95	;'_'
   282   00101E  00                 	db	0
   283   00101F                     STR_5:
   284   00101F  4D                 	db	77	;'M'
   285   001020  69                 	db	105	;'i'
   286   001021  6E                 	db	110	;'n'
   287   001022  75                 	db	117	;'u'
   288   001023  74                 	db	116	;'t'
   289   001024  65                 	db	101	;'e'
   290   001025  73                 	db	115	;'s'
   291   001026  20                 	db	32
   292   001027  3D                 	db	61	;'='
   293   001028  20                 	db	32
   294   001029  5F                 	db	95	;'_'
   295   00102A  5F                 	db	95	;'_'
   296   00102B  00                 	db	0
   297   00102C                     STR_4:
   298   00102C  48                 	db	72	;'H'
   299   00102D  6F                 	db	111	;'o'
   300   00102E  75                 	db	117	;'u'
   301   00102F  72                 	db	114	;'r'
   302   001030  73                 	db	115	;'s'
   303   001031  20                 	db	32
   304   001032  3D                 	db	61	;'='
   305   001033  20                 	db	32
   306   001034  5F                 	db	95	;'_'
   307   001035  5F                 	db	95	;'_'
   308   001036  00                 	db	0
   309   001037                     STR_2:
   310   001037  50                 	db	80	;'P'
   311   001038  72                 	db	114	;'r'
   312   001039  65                 	db	101	;'e'
   313   00103A  73                 	db	115	;'s'
   314   00103B  73                 	db	115	;'s'
   315   00103C  20                 	db	32
   316   00103D  31                 	db	49	;'1'
   317   00103E  20                 	db	32
   318   00103F  74                 	db	116	;'t'
   319   001040  6F                 	db	111	;'o'
   320   001041  00                 	db	0
   321   001042                     STR_3:
   322   001042  53                 	db	83	;'S'
   323   001043  65                 	db	101	;'e'
   324   001044  74                 	db	116	;'t'
   325   001045  20                 	db	32
   326   001046  54                 	db	84	;'T'
   327   001047  69                 	db	105	;'i'
   328   001048  6D                 	db	109	;'m'
   329   001049  65                 	db	101	;'e'
   330   00104A  00                 	db	0
   331   00104B                     STR_1:
   332   00104B  57                 	db	87	;'W'
   333   00104C  65                 	db	101	;'e'
   334   00104D  6C                 	db	108	;'l'
   335   00104E  63                 	db	99	;'c'
   336   00104F  6F                 	db	111	;'o'
   337   001050  6D                 	db	109	;'m'
   338   001051  65                 	db	101	;'e'
   339   001052  00                 	db	0
   340   001053                     STR_7:
   341   001053  25                 	db	37
   342   001054  69                 	db	105	;'i'
   343   001055  00                 	db	0
   344   001056  00                 	db	0	; dummy byte at the end
   345   000000                     
   346                           ; #config settings
   347                           
   348                           	psect	cinit
   349   0020CE                     __pcinit:
   350                           	callstack 0
   351   0020CE                     start_initialization:
   352                           	callstack 0
   353   0020CE                     __initialization:
   354                           	callstack 0
   355                           
   356                           ; Initialize objects allocated to BANK0 (39 bytes)
   357                           ; load TBLPTR registers with __pidataBANK0
   358   0020CE  0E1E               	movlw	low __pidataBANK0
   359   0020D0  6EF6               	movwf	tblptrl,c
   360   0020D2  0E26               	movlw	high __pidataBANK0
   361   0020D4  6EF7               	movwf	tblptrh,c
   362   0020D6  0E00               	movlw	low (__pidataBANK0 shr (0+16))
   363   0020D8  6EF8               	movwf	tblptru,c
   364   0020DA  EE00  F080         	lfsr	0,__pdataBANK0
   365   0020DE  EE10 F027          	lfsr	1,39
   366   0020E2                     copy_data0:
   367   0020E2  0009               	tblrd		*+
   368   0020E4  CFF5 FFEE          	movff	tablat,postinc0
   369   0020E8  50E5               	movf	postdec1,w,c
   370   0020EA  50E1               	movf	fsr1l,w,c
   371   0020EC  E1FA               	bnz	copy_data0
   372                           
   373                           ; Initialize objects allocated to COMRAM (27 bytes)
   374                           ; load TBLPTR registers with __pidataCOMRAM
   375   0020EE  0E68               	movlw	low __pidataCOMRAM
   376   0020F0  6EF6               	movwf	tblptrl,c
   377   0020F2  0E26               	movlw	high __pidataCOMRAM
   378   0020F4  6EF7               	movwf	tblptrh,c
   379   0020F6  0E00               	movlw	low (__pidataCOMRAM shr (0+16))
   380   0020F8  6EF8               	movwf	tblptru,c
   381   0020FA  EE00  F05E         	lfsr	0,__pdataCOMRAM
   382   0020FE  EE10 F01B          	lfsr	1,27
   383   002102                     copy_data1:
   384   002102  0009               	tblrd		*+
   385   002104  CFF5 FFEE          	movff	tablat,postinc0
   386   002108  50E5               	movf	postdec1,w,c
   387   00210A  50E1               	movf	fsr1l,w,c
   388   00210C  E1FA               	bnz	copy_data1
   389                           
   390                           ; Clear objects allocated to BANK0 (32 bytes)
   391   00210E  EE00  F0A7         	lfsr	0,__pbssBANK0
   392   002112  0E20               	movlw	32
   393   002114                     clear_0:
   394   002114  6AEE               	clrf	postinc0,c
   395   002116  06E8               	decf	wreg,f,c
   396   002118  E1FD               	bnz	clear_0
   397                           
   398                           ; Clear objects allocated to COMRAM (40 bytes)
   399   00211A  EE00  F036         	lfsr	0,__pbssCOMRAM
   400   00211E  0E28               	movlw	40
   401   002120                     clear_1:
   402   002120  6AEE               	clrf	postinc0,c
   403   002122  06E8               	decf	wreg,f,c
   404   002124  E1FD               	bnz	clear_1
   405   002126                     end_of_initialization:
   406                           	callstack 0
   407   002126                     __end_of__initialization:
   408                           	callstack 0
   409   002126  9079               	bcf	int$flags,0,c	;clear compiler interrupt flag (level 1)
   410   002128  9279               	bcf	int$flags,1,c	;clear compiler interrupt flag (level 2)
   411   00212A  0100               	movlb	0
   412   00212C  EF4F  F013         	goto	_main	;jump to C main() function
   413                           
   414                           	psect	bssCOMRAM
   415   000036                     __pbssCOMRAM:
   416                           	callstack 0
   417   000036                     _width:
   418                           	callstack 0
   419   000036                     	ds	2
   420   000038                     _prec:
   421                           	callstack 0
   422   000038                     	ds	2
   423   00003A                     _TMR3_preload:
   424                           	callstack 0
   425   00003A                     	ds	2
   426   00003C                     _TMR3_InterruptHandler:
   427                           	callstack 0
   428   00003C                     	ds	2
   429   00003E                     _TMR2_InterruptHandler:
   430                           	callstack 0
   431   00003E                     	ds	2
   432   000040                     _TMR1_preload:
   433                           	callstack 0
   434   000040                     	ds	2
   435   000042                     _TMR1_InterruptHandler:
   436                           	callstack 0
   437   000042                     	ds	2
   438   000044                     _tmr0_preload:
   439                           	callstack 0
   440   000044                     	ds	2
   441   000046                     _Timer0_InterruptHandler:
   442                           	callstack 0
   443   000046                     	ds	2
   444   000048                     	ds	2
   445   00004A                     	ds	2
   446   00004C                     	ds	2
   447   00004E                     	ds	2
   448   000050                     _INT2_InterruptHandler:
   449                           	callstack 0
   450   000050                     	ds	2
   451   000052                     _INT1_InterruptHandler:
   452                           	callstack 0
   453   000052                     	ds	2
   454   000054                     _INT0_InterruptHandler:
   455                           	callstack 0
   456   000054                     	ds	2
   457   000056                     _flags:
   458                           	callstack 0
   459   000056                     	ds	1
   460   000057                     _TMR2_preload:
   461                           	callstack 0
   462   000057                     	ds	1
   463   000058                     _lcd_counter:
   464                           	callstack 0
   465   000058                     	ds	1
   466   000059                     _display_counter:
   467                           	callstack 0
   468   000059                     	ds	1
   469   00005A                     _setting_counter:
   470                           	callstack 0
   471   00005A                     	ds	1
   472   00005B                     _counter:
   473                           	callstack 0
   474   00005B                     	ds	1
   475   00005C                     _keypad_value:
   476                           	callstack 0
   477   00005C                     	ds	1
   478   00005D                     _Line_H1:
   479                           	callstack 0
   480   00005D                     	ds	1
   481                           
   482                           	psect	dataCOMRAM
   483   00005E                     __pdataCOMRAM:
   484                           	callstack 0
   485   00005E                     _hours:
   486                           	callstack 0
   487   00005E                     	ds	1
   488   00005F                     _min:
   489                           	callstack 0
   490   00005F                     	ds	1
   491   000060                     _sec:
   492                           	callstack 0
   493   000060                     	ds	1
   494   000061                     _keypad:
   495                           	callstack 0
   496   000061                     	ds	8
   497   000069                     _lcd:
   498                           	callstack 0
   499   000069                     	ds	6
   500   00006F                     _clock:
   501                           	callstack 0
   502   00006F                     	ds	5
   503   000074                     _Line_S2:
   504                           	callstack 0
   505   000074                     	ds	1
   506   000075                     _Line_S1:
   507                           	callstack 0
   508   000075                     	ds	1
   509   000076                     _Line_M2:
   510                           	callstack 0
   511   000076                     	ds	1
   512   000077                     _Line_M1:
   513                           	callstack 0
   514   000077                     	ds	1
   515   000078                     _Line_H2:
   516                           	callstack 0
   517   000078                     	ds	1
   518                           
   519                           	psect	bssBANK0
   520   0000A7                     __pbssBANK0:
   521                           	callstack 0
   522   0000A7                     _dbuf:
   523                           	callstack 0
   524   0000A7                     	ds	32
   525                           
   526                           	psect	dataBANK0
   527   000080                     __pdataBANK0:
   528                           	callstack 0
   529   000080                     _port_registers:
   530                           	callstack 0
   531   000080                     	ds	10
   532   00008A                     _lat_registers:
   533                           	callstack 0
   534   00008A                     	ds	10
   535   000094                     _tris_registers:
   536                           	callstack 0
   537   000094                     	ds	10
   538   00009E                     _delay:
   539                           	callstack 0
   540   00009E                     	ds	9
   541                           
   542                           	psect	cstackBANK0
   543   0000C7                     __pcstackBANK0:
   544                           	callstack 0
   545   0000C7                     
   546                           ; 2 bytes @ 0x0
   547   0000C7                     	ds	2
   548   0000C9                     
   549                           ; 3 bytes @ 0x2
   550   0000C9                     	ds	3
   551                           
   552                           	psect	cstackCOMRAM
   553   000001                     __pcstackCOMRAM:
   554                           	callstack 0
   555   000001                     ??_InterruptManger:
   556   000001                     
   557                           ; 1 bytes @ 0x0
   558   000001                     	ds	2
   559   000003                     ?___awdiv:
   560                           	callstack 0
   561   000003                     ?___awmod:
   562                           	callstack 0
   563   000003                     gpio_pin_Read_logic@_pin_config:
   564                           	callstack 0
   565   000003                     gpio_pin_Write_logic@_pin_config:
   566                           	callstack 0
   567   000003                     gpio_pin_direction_intialize@_pin_config:
   568                           	callstack 0
   569   000003                     gpio_port_Write_logic@logic:
   570                           	callstack 0
   571   000003                     Timer0_Init@obj:
   572                           	callstack 0
   573   000003                     Timer0_DeInit@obj:
   574                           	callstack 0
   575   000003                     memset@dest:
   576                           	callstack 0
   577   000003                     ___awdiv@dividend:
   578                           	callstack 0
   579   000003                     ___awmod@dividend:
   580                           	callstack 0
   581   000003                     fputc@c:
   582                           	callstack 0
   583                           
   584                           ; 2 bytes @ 0x2
   585   000003                     	ds	1
   586   000004                     ??_gpio_pin_direction_intialize:
   587   000004                     ??_Timer0_Init:
   588   000004                     ??_gpio_port_Write_logic:
   589   000004                     gpio_pin_Read_logic@logic:
   590                           	callstack 0
   591   000004                     gpio_pin_Write_logic@logic:
   592                           	callstack 0
   593   000004                     memset@c:
   594                           	callstack 0
   595                           
   596                           ; 2 bytes @ 0x3
   597   000004                     	ds	1
   598   000005                     ??_gpio_pin_Write_logic:
   599   000005                     ??_gpio_pin_Read_logic:
   600   000005                     fputc@fp:
   601                           	callstack 0
   602   000005                     ___awdiv@divisor:
   603                           	callstack 0
   604   000005                     ___awmod@divisor:
   605                           	callstack 0
   606                           
   607                           ; 2 bytes @ 0x4
   608   000005                     	ds	1
   609   000006                     ??_fputc:
   610   000006                     gpio_port_Write_logic@port:
   611                           	callstack 0
   612   000006                     memset@n:
   613                           	callstack 0
   614                           
   615                           ; 2 bytes @ 0x5
   616   000006                     	ds	1
   617   000007                     ___awdiv@counter:
   618                           	callstack 0
   619   000007                     ___awmod@counter:
   620                           	callstack 0
   621                           
   622                           ; 1 bytes @ 0x6
   623   000007                     	ds	1
   624   000008                     ___awdiv@sign:
   625                           	callstack 0
   626   000008                     ___awmod@sign:
   627                           	callstack 0
   628   000008                     memset@p:
   629                           	callstack 0
   630                           
   631                           ; 1 bytes @ 0x7
   632   000008                     	ds	1
   633   000009                     ?_abs:
   634                           	callstack 0
   635   000009                     gpio_pin_Read_logic@ret:
   636                           	callstack 0
   637   000009                     gpio_pin_direction_intialize@ret:
   638                           	callstack 0
   639   000009                     ___awdiv@quotient:
   640                           	callstack 0
   641   000009                     abs@a:
   642                           	callstack 0
   643                           
   644                           ; 2 bytes @ 0x8
   645   000009                     	ds	1
   646   00000A                     keypad_intialize@keypad_obj:
   647                           	callstack 0
   648   00000A                     segment_intialize@seg:
   649                           	callstack 0
   650   00000A                     gpio_pin_Write_logic@ret:
   651                           	callstack 0
   652                           
   653                           ; 1 bytes @ 0x9
   654   00000A                     	ds	1
   655   00000B                     ??_abs:
   656   00000B                     keypad_intialize@ret:
   657                           	callstack 0
   658   00000B                     keypad_get_value@keypad_obj:
   659                           	callstack 0
   660   00000B                     send_4bit@lcd:
   661                           	callstack 0
   662   00000B                     send_4bit_enable_signal@lcd:
   663                           	callstack 0
   664   00000B                     segment_intialize@ret:
   665                           	callstack 0
   666   00000B                     segment_write_number@seg:
   667                           	callstack 0
   668   00000B                     gpio_pin_intialize@_pin_config:
   669                           	callstack 0
   670                           
   671                           ; 1 bytes @ 0xA
   672   00000B                     	ds	1
   673   00000C                     ??_gpio_pin_intialize:
   674   00000C                     keypad_intialize@rows_counter:
   675                           	callstack 0
   676   00000C                     keypad_get_value@value:
   677                           	callstack 0
   678   00000C                     send_4bit@_data_command:
   679                           	callstack 0
   680   00000C                     segment_write_number@number:
   681                           	callstack 0
   682                           
   683                           ; 1 bytes @ 0xB
   684   00000C                     	ds	1
   685   00000D                     ??_keypad_get_value:
   686   00000D                     keypad_intialize@columns_counter:
   687                           	callstack 0
   688   00000D                     lcd_4bit_send_command@lcd:
   689                           	callstack 0
   690   00000D                     lcd_4bit_send_data@lcd:
   691                           	callstack 0
   692   00000D                     segment_write_number@ret:
   693                           	callstack 0
   694   00000D                     gpio_pin_intialize@ret:
   695                           	callstack 0
   696   00000D                     vfpfcnvrt@fp:
   697                           	callstack 0
   698                           
   699                           ; 1 bytes @ 0xC
   700   00000D                     	ds	1
   701   00000E                     ??_write_clock:
   702   00000E                     keypad_get_value@col_val:
   703                           	callstack 0
   704   00000E                     lcd_4bit_send_command@command:
   705                           	callstack 0
   706   00000E                     lcd_4bit_send_data@data:
   707                           	callstack 0
   708   00000E                     vfpfcnvrt@fmt:
   709                           	callstack 0
   710                           
   711                           ; 1 bytes @ 0xD
   712   00000E                     	ds	1
   713   00000F                     keypad_get_value@rows_counter2:
   714                           	callstack 0
   715   00000F                     lcd_4bit_intialize@lcd:
   716                           	callstack 0
   717   00000F                     lcd_4bit_send_string@lcd:
   718                           	callstack 0
   719   00000F                     set_cursor_4bit@lcd:
   720                           	callstack 0
   721   00000F                     vfpfcnvrt@ap:
   722                           	callstack 0
   723                           
   724                           ; 1 bytes @ 0xE
   725   00000F                     	ds	1
   726   000010                     ??_lcd_4bit_intialize:
   727   000010                     ??_vfpfcnvrt:
   728   000010                     keypad_get_value@rows_counter:
   729                           	callstack 0
   730   000010                     set_cursor_4bit@row:
   731                           	callstack 0
   732   000010                     lcd_4bit_send_string@str:
   733                           	callstack 0
   734                           
   735                           ; 2 bytes @ 0xF
   736   000010                     	ds	1
   737   000011                     keypad_get_value@columns_counter:
   738                           	callstack 0
   739   000011                     lcd_4bit_intialize@ret:
   740                           	callstack 0
   741   000011                     set_cursor_4bit@column:
   742                           	callstack 0
   743   000011                     vfpfcnvrt@done:
   744                           	callstack 0
   745                           
   746                           ; 1 bytes @ 0x10
   747   000011                     	ds	1
   748   000012                     ??_set_cursor_4bit:
   749   000012                     vfpfcnvrt@cp:
   750                           	callstack 0
   751                           
   752                           ; 1 bytes @ 0x11
   753   000012                     	ds	1
   754   000013                     vfpfcnvrt@convarg:
   755                           	callstack 0
   756                           
   757                           ; 4 bytes @ 0x12
   758   000013                     	ds	1
   759   000014                     lcd_4bit_send_string_pos@lcd:
   760                           	callstack 0
   761                           
   762                           ; 1 bytes @ 0x13
   763   000014                     	ds	1
   764   000015                     lcd_4bit_send_string_pos@row:
   765                           	callstack 0
   766                           
   767                           ; 1 bytes @ 0x14
   768   000015                     	ds	1
   769   000016                     lcd_4bit_send_string_pos@column:
   770                           	callstack 0
   771                           
   772                           ; 1 bytes @ 0x15
   773   000016                     	ds	1
   774   000017                     vfpfcnvrt@c:
   775                           	callstack 0
   776   000017                     lcd_4bit_send_string_pos@str:
   777                           	callstack 0
   778                           
   779                           ; 2 bytes @ 0x16
   780   000017                     	ds	1
   781   000018                     ?_vfprintf:
   782                           	callstack 0
   783   000018                     vfprintf@fp:
   784                           	callstack 0
   785                           
   786                           ; 1 bytes @ 0x17
   787   000018                     	ds	1
   788   000019                     ??_welcome_message:
   789   000019                     vfprintf@fmt:
   790                           	callstack 0
   791                           
   792                           ; 1 bytes @ 0x18
   793   000019                     	ds	1
   794   00001A                     vfprintf@ap:
   795                           	callstack 0
   796                           
   797                           ; 1 bytes @ 0x19
   798   00001A                     	ds	1
   799   00001B                     vfprintf@cfmt:
   800                           	callstack 0
   801                           
   802                           ; 1 bytes @ 0x1A
   803   00001B                     	ds	1
   804   00001C                     ?_sprintf:
   805                           	callstack 0
   806   00001C                     sprintf@s:
   807                           	callstack 0
   808                           
   809                           ; 1 bytes @ 0x1B
   810   00001C                     	ds	1
   811   00001D                     sprintf@fmt:
   812                           	callstack 0
   813                           
   814                           ; 1 bytes @ 0x1C
   815   00001D                     	ds	3
   816   000020                     sprintf@ap:
   817                           	callstack 0
   818                           
   819                           ; 1 bytes @ 0x1F
   820   000020                     	ds	1
   821   000021                     sprintf@f:
   822                           	callstack 0
   823                           
   824                           ; 12 bytes @ 0x20
   825   000021                     	ds	12
   826   00002D                     convert_byte_to_string@str:
   827                           	callstack 0
   828                           
   829                           ; 1 bytes @ 0x2C
   830   00002D                     	ds	1
   831   00002E                     convert_byte_to_string@value:
   832                           	callstack 0
   833                           
   834                           ; 1 bytes @ 0x2D
   835   00002E                     	ds	1
   836   00002F                     ??_Set_Time:
   837                           
   838                           ; 1 bytes @ 0x2E
   839   00002F                     	ds	2
   840   000031                     Set_Time@display_value:
   841                           	callstack 0
   842                           
   843                           ; 4 bytes @ 0x30
   844   000031                     	ds	4
   845   000035                     Set_Time@L_value:
   846                           	callstack 0
   847                           
   848                           ; 1 bytes @ 0x34
   849   000035                     	ds	1
   850   000036                     
   851                           ; 1 bytes @ 0x35
   852 ;;
   853 ;;Main: autosize = 0, tempsize = 0, incstack = 0, save=0
   854 ;;
   855 ;; *************** function _main *****************
   856 ;; Defined at:
   857 ;;		line 11 in file "main.c"
   858 ;; Parameters:    Size  Location     Type
   859 ;;  argc            2    0[BANK0 ] int 
   860 ;;  argv            3    2[BANK0 ] PTR PTR unsigned char 
   861 ;; Auto vars:     Size  Location     Type
   862 ;;		None
   863 ;; Return value:  Size  Location     Type
   864 ;;                  2    0[BANK0 ] int 
   865 ;; Registers used:
   866 ;;		wreg, fsr0l, fsr0h, fsr1l, fsr1h, fsr2l, fsr2h, status,2, status,0, tblptrl, tblptrh, tblptru, prodl, prodh, cstack
   867 ;; Tracked objects:
   868 ;;		On entry : 0/0
   869 ;;		On exit  : 0/0
   870 ;;		Unchanged: 0/0
   871 ;; Data sizes:     COMRAM   BANK0   BANK1   BANK2   BANK3   BANK4   BANK5   BANK6   BANK7   BANK8   BANK9  BANK10  BANK1
      +1  BANK12  BANK13  BANK14  BANK15
   872 ;;      Params:         0       5       0       0       0       0       0       0       0       0       0       0       
      +0       0       0       0       0
   873 ;;      Locals:         0       0       0       0       0       0       0       0       0       0       0       0       
      +0       0       0       0       0
   874 ;;      Temps:          0       0       0       0       0       0       0       0       0       0       0       0       
      +0       0       0       0       0
   875 ;;      Totals:         0       5       0       0       0       0       0       0       0       0       0       0       
      +0       0       0       0       0
   876 ;;Total ram usage:        5 bytes
   877 ;; Hardware stack levels required when called: 11
   878 ;; This function calls:
   879 ;;		_clock_setting
   880 ;;		_intialization
   881 ;;		_welcome_message
   882 ;;		_write_clock
   883 ;; This function is called by:
   884 ;;		Startup code after reset
   885 ;; This function uses a non-reentrant model
   886 ;;
   887                           
   888                           	psect	text0
   889   00269E                     __ptext0:
   890                           	callstack 0
   891   00269E                     _main:
   892                           	callstack 20
   893   00269E                     
   894                           ;main.c: 15:     intialization();
   895   00269E  EC4D  F011         	call	_intialization	;wreg free
   896   0026A2                     
   897                           ;main.c: 16:     welcome_message();
   898   0026A2  EC76  F011         	call	_welcome_message	;wreg free
   899   0026A6                     l4187:
   900                           
   901                           ;main.c: 18:         write_clock();
   902   0026A6  EC15  F00B         	call	_write_clock	;wreg free
   903   0026AA                     
   904                           ;main.c: 19:         clock_setting();
   905   0026AA  ECF6  F010         	call	_clock_setting	;wreg free
   906   0026AE  EF53  F013         	goto	l4187
   907   0026B2  EF07  F000         	goto	start
   908   0026B6                     __end_of_main:
   909                           	callstack 0
   910                           
   911 ;; *************** function _welcome_message *****************
   912 ;; Defined at:
   913 ;;		line 24 in file "function.c"
   914 ;; Parameters:    Size  Location     Type
   915 ;;		None
   916 ;; Auto vars:     Size  Location     Type
   917 ;;		None
   918 ;; Return value:  Size  Location     Type
   919 ;;                  1    wreg      void 
   920 ;; Registers used:
   921 ;;		wreg, fsr0l, fsr0h, fsr2l, fsr2h, status,2, status,0, tblptrl, tblptrh, tblptru, prodl, prodh, cstack
   922 ;; Tracked objects:
   923 ;;		On entry : 0/0
   924 ;;		On exit  : 0/0
   925 ;;		Unchanged: 0/0
   926 ;; Data sizes:     COMRAM   BANK0   BANK1   BANK2   BANK3   BANK4   BANK5   BANK6   BANK7   BANK8   BANK9  BANK10  BANK1
      +1  BANK12  BANK13  BANK14  BANK15
   927 ;;      Params:         0       0       0       0       0       0       0       0       0       0       0       0       
      +0       0       0       0       0
   928 ;;      Locals:         0       0       0       0       0       0       0       0       0       0       0       0       
      +0       0       0       0       0
   929 ;;      Temps:          2       0       0       0       0       0       0       0       0       0       0       0       
      +0       0       0       0       0
   930 ;;      Totals:         2       0       0       0       0       0       0       0       0       0       0       0       
      +0       0       0       0       0
   931 ;;Total ram usage:        2 bytes
   932 ;; Hardware stack levels used: 1
   933 ;; Hardware stack levels required when called: 8
   934 ;; This function calls:
   935 ;;		_lcd_4bit_send_command
   936 ;;		_lcd_4bit_send_string_pos
   937 ;; This function is called by:
   938 ;;		_main
   939 ;; This function uses a non-reentrant model
   940 ;;
   941                           
   942                           	psect	text1
   943   0022EC                     __ptext1:
   944                           	callstack 0
   945   0022EC                     _welcome_message:
   946                           	callstack 22
   947   0022EC                     
   948                           ;function.c: 26:      lcd_4bit_send_string_pos(&lcd,2,7,"Welcome");
   949   0022EC  0E69               	movlw	low _lcd
   950   0022EE  6E14               	movwf	lcd_4bit_send_string_pos@lcd^0,c
   951   0022F0  0E02               	movlw	2
   952   0022F2  6E15               	movwf	lcd_4bit_send_string_pos@row^0,c
   953   0022F4  0E07               	movlw	7
   954   0022F6  6E16               	movwf	lcd_4bit_send_string_pos@column^0,c
   955   0022F8  0E4B               	movlw	low STR_1
   956   0022FA  6E17               	movwf	lcd_4bit_send_string_pos@str^0,c
   957   0022FC  5017               	movf	lcd_4bit_send_string_pos@str^0,w,c
   958   0022FE  A4D8               	btfss	status,2,c
   959   002300  0E10               	movlw	high __smallconst
   960   002302  6E18               	movwf	(lcd_4bit_send_string_pos@str+1)^0,c
   961   002304  EC8D  F012         	call	_lcd_4bit_send_string_pos	;wreg free
   962   002308                     
   963                           ;function.c: 27:     _delay((unsigned long)((250)*(8000000UL/4000.0)));
   964   002308  0E03               	movlw	3
   965   00230A  6E1A               	movwf	(??_welcome_message+1)^0,c
   966   00230C  0E8A               	movlw	138
   967   00230E  6E19               	movwf	??_welcome_message^0,c
   968   002310  0E56               	movlw	86
   969   002312                     u3027:
   970   002312  2EE8               	decfsz	wreg,f,c
   971   002314  D7FE               	bra	u3027
   972   002316  2E19               	decfsz	??_welcome_message^0,f,c
   973   002318  D7FC               	bra	u3027
   974   00231A  2E1A               	decfsz	(??_welcome_message+1)^0,f,c
   975   00231C  D7FA               	bra	u3027
   976   00231E                     
   977                           ;function.c: 28:     lcd_4bit_send_command(&lcd,0X01);
   978   00231E  0E69               	movlw	low _lcd
   979   002320  6E0D               	movwf	lcd_4bit_send_command@lcd^0,c
   980   002322  0E01               	movlw	1
   981   002324  6E0E               	movwf	lcd_4bit_send_command@command^0,c
   982   002326  EC9D  F011         	call	_lcd_4bit_send_command	;wreg free
   983   00232A                     
   984                           ;function.c: 29:     _delay((unsigned long)((20)*(8000000UL/4000.0)));
   985   00232A  0E34               	movlw	52
   986   00232C  6E19               	movwf	??_welcome_message^0,c
   987   00232E  0EF2               	movlw	242
   988   002330                     u3037:
   989   002330  2EE8               	decfsz	wreg,f,c
   990   002332  D7FE               	bra	u3037
   991   002334  2E19               	decfsz	??_welcome_message^0,f,c
   992   002336  D7FC               	bra	u3037
   993   002338  0012               	return		;funcret
   994   00233A                     __end_of_welcome_message:
   995                           	callstack 0
   996                           
   997 ;; *************** function _intialization *****************
   998 ;; Defined at:
   999 ;;		line 9 in file "function.c"
  1000 ;; Parameters:    Size  Location     Type
  1001 ;;		None
  1002 ;; Auto vars:     Size  Location     Type
  1003 ;;		None
  1004 ;; Return value:  Size  Location     Type
  1005 ;;                  1    wreg      void 
  1006 ;; Registers used:
  1007 ;;		wreg, fsr2l, fsr2h, status,2, status,0, prodl, prodh, cstack
  1008 ;; Tracked objects:
  1009 ;;		On entry : 0/0
  1010 ;;		On exit  : 0/0
  1011 ;;		Unchanged: 0/0
  1012 ;; Data sizes:     COMRAM   BANK0   BANK1   BANK2   BANK3   BANK4   BANK5   BANK6   BANK7   BANK8   BANK9  BANK10  BANK1
      +1  BANK12  BANK13  BANK14  BANK15
  1013 ;;      Params:         0       0       0       0       0       0       0       0       0       0       0       0       
      +0       0       0       0       0
  1014 ;;      Locals:         0       0       0       0       0       0       0       0       0       0       0       0       
      +0       0       0       0       0
  1015 ;;      Temps:          0       0       0       0       0       0       0       0       0       0       0       0       
      +0       0       0       0       0
  1016 ;;      Totals:         0       0       0       0       0       0       0       0       0       0       0       0       
      +0       0       0       0       0
  1017 ;;Total ram usage:        0 bytes
  1018 ;; Hardware stack levels used: 1
  1019 ;; Hardware stack levels required when called: 7
  1020 ;; This function calls:
  1021 ;;		_Timer0_Init
  1022 ;;		_gpio_pin_direction_intialize
  1023 ;;		_keypad_intialize
  1024 ;;		_lcd_4bit_intialize
  1025 ;;		_segment_intialize
  1026 ;; This function is called by:
  1027 ;;		_main
  1028 ;; This function uses a non-reentrant model
  1029 ;;
  1030                           
  1031                           	psect	text2
  1032   00229A                     __ptext2:
  1033                           	callstack 0
  1034   00229A                     _intialization:
  1035                           	callstack 23
  1036   00229A                     
  1037                           ;function.c: 11:     lcd_4bit_intialize(&lcd);
  1038   00229A  0E69               	movlw	low _lcd
  1039   00229C  6E0F               	movwf	lcd_4bit_intialize@lcd^0,c
  1040   00229E  EC34  F00E         	call	_lcd_4bit_intialize	;wreg free
  1041                           
  1042                           ;function.c: 12:     keypad_intialize(&keypad);
  1043   0022A2  0E61               	movlw	low _keypad
  1044   0022A4  6E0A               	movwf	keypad_intialize@keypad_obj^0,c
  1045   0022A6  EC98  F010         	call	_keypad_intialize	;wreg free
  1046                           
  1047                           ;function.c: 13:     gpio_pin_direction_intialize(&Line_H1);
  1048   0022AA  0E5D               	movlw	low _Line_H1
  1049   0022AC  6E03               	movwf	gpio_pin_direction_intialize@_pin_config^0,c
  1050   0022AE  ECB8  F00B         	call	_gpio_pin_direction_intialize	;wreg free
  1051                           
  1052                           ;function.c: 14:     gpio_pin_direction_intialize(&Line_H2);
  1053   0022B2  0E78               	movlw	low _Line_H2
  1054   0022B4  6E03               	movwf	gpio_pin_direction_intialize@_pin_config^0,c
  1055   0022B6  ECB8  F00B         	call	_gpio_pin_direction_intialize	;wreg free
  1056                           
  1057                           ;function.c: 15:     gpio_pin_direction_intialize(&Line_M1);
  1058   0022BA  0E77               	movlw	low _Line_M1
  1059   0022BC  6E03               	movwf	gpio_pin_direction_intialize@_pin_config^0,c
  1060   0022BE  ECB8  F00B         	call	_gpio_pin_direction_intialize	;wreg free
  1061                           
  1062                           ;function.c: 16:     gpio_pin_direction_intialize(&Line_M2);
  1063   0022C2  0E76               	movlw	low _Line_M2
  1064   0022C4  6E03               	movwf	gpio_pin_direction_intialize@_pin_config^0,c
  1065   0022C6  ECB8  F00B         	call	_gpio_pin_direction_intialize	;wreg free
  1066                           
  1067                           ;function.c: 17:     gpio_pin_direction_intialize(&Line_S1);
  1068   0022CA  0E75               	movlw	low _Line_S1
  1069   0022CC  6E03               	movwf	gpio_pin_direction_intialize@_pin_config^0,c
  1070   0022CE  ECB8  F00B         	call	_gpio_pin_direction_intialize	;wreg free
  1071                           
  1072                           ;function.c: 18:     gpio_pin_direction_intialize(&Line_S2);
  1073   0022D2  0E74               	movlw	low _Line_S2
  1074   0022D4  6E03               	movwf	gpio_pin_direction_intialize@_pin_config^0,c
  1075   0022D6  ECB8  F00B         	call	_gpio_pin_direction_intialize	;wreg free
  1076                           
  1077                           ;function.c: 19:     segment_intialize(&clock);
  1078   0022DA  0E6F               	movlw	low _clock
  1079   0022DC  6E0A               	movwf	segment_intialize@seg^0,c
  1080   0022DE  EC0F  F012         	call	_segment_intialize	;wreg free
  1081   0022E2                     
  1082                           ;function.c: 20:     Timer0_Init(&delay);
  1083   0022E2  0E9E               	movlw	low _delay
  1084   0022E4  6E03               	movwf	Timer0_Init@obj^0,c
  1085   0022E6  EC5F  F00A         	call	_Timer0_Init	;wreg free
  1086   0022EA  0012               	return		;funcret
  1087   0022EC                     __end_of_intialization:
  1088                           	callstack 0
  1089                           
  1090 ;; *************** function _segment_intialize *****************
  1091 ;; Defined at:
  1092 ;;		line 9 in file "ECU_LAYER/SEGMENT/segment.c"
  1093 ;; Parameters:    Size  Location     Type
  1094 ;;  seg             1    9[COMRAM] PTR const struct .
  1095 ;;		 -> clock(5), 
  1096 ;; Auto vars:     Size  Location     Type
  1097 ;;  ret             1   10[COMRAM] unsigned char 
  1098 ;; Return value:  Size  Location     Type
  1099 ;;                  1    wreg      unsigned char 
  1100 ;; Registers used:
  1101 ;;		wreg, fsr2l, fsr2h, status,2, status,0, prodl, prodh, cstack
  1102 ;; Tracked objects:
  1103 ;;		On entry : 0/0
  1104 ;;		On exit  : 0/0
  1105 ;;		Unchanged: 0/0
  1106 ;; Data sizes:     COMRAM   BANK0   BANK1   BANK2   BANK3   BANK4   BANK5   BANK6   BANK7   BANK8   BANK9  BANK10  BANK1
      +1  BANK12  BANK13  BANK14  BANK15
  1107 ;;      Params:         1       0       0       0       0       0       0       0       0       0       0       0       
      +0       0       0       0       0
  1108 ;;      Locals:         1       0       0       0       0       0       0       0       0       0       0       0       
      +0       0       0       0       0
  1109 ;;      Temps:          0       0       0       0       0       0       0       0       0       0       0       0       
      +0       0       0       0       0
  1110 ;;      Totals:         2       0       0       0       0       0       0       0       0       0       0       0       
      +0       0       0       0       0
  1111 ;;Total ram usage:        2 bytes
  1112 ;; Hardware stack levels used: 1
  1113 ;; Hardware stack levels required when called: 4
  1114 ;; This function calls:
  1115 ;;		_gpio_pin_direction_intialize
  1116 ;; This function is called by:
  1117 ;;		_intialization
  1118 ;; This function uses a non-reentrant model
  1119 ;;
  1120                           
  1121                           	psect	text3
  1122   00241E                     __ptext3:
  1123                           	callstack 0
  1124   00241E                     _segment_intialize:
  1125                           	callstack 25
  1126   00241E                     
  1127                           ;ECU_LAYER/SEGMENT/segment.c: 13:     if (((void*)0) == seg){
  1128   00241E  500A               	movf	segment_intialize@seg^0,w,c
  1129   002420  A4D8               	btfss	status,2,c
  1130   002422  EF15  F012         	goto	u2621
  1131   002426  EF17  F012         	goto	u2620
  1132   00242A                     u2621:
  1133   00242A  EF19  F012         	goto	l3715
  1134   00242E                     u2620:
  1135   00242E                     
  1136                           ;ECU_LAYER/SEGMENT/segment.c: 15:     }
  1137   00242E  EF2F  F012         	goto	l352
  1138   002432                     l3715:
  1139                           
  1140                           ;ECU_LAYER/SEGMENT/segment.c: 17:       ret=gpio_pin_direction_intialize(&(seg->segment_
      +                          pins[0]));
  1141   002432  C00A  F003         	movff	segment_intialize@seg,gpio_pin_direction_intialize@_pin_config
  1142   002436  ECB8  F00B         	call	_gpio_pin_direction_intialize	;wreg free
  1143   00243A  6E0B               	movwf	segment_intialize@ret^0,c
  1144                           
  1145                           ;ECU_LAYER/SEGMENT/segment.c: 18:       ret=gpio_pin_direction_intialize(&(seg->segment_
      +                          pins[1]));
  1146   00243C  280A               	incf	segment_intialize@seg^0,w,c
  1147   00243E  6E03               	movwf	gpio_pin_direction_intialize@_pin_config^0,c
  1148   002440  ECB8  F00B         	call	_gpio_pin_direction_intialize	;wreg free
  1149   002444  6E0B               	movwf	segment_intialize@ret^0,c
  1150                           
  1151                           ;ECU_LAYER/SEGMENT/segment.c: 19:       ret=gpio_pin_direction_intialize(&(seg->segment_
      +                          pins[2]));
  1152   002446  500A               	movf	segment_intialize@seg^0,w,c
  1153   002448  0F02               	addlw	2
  1154   00244A  6E03               	movwf	gpio_pin_direction_intialize@_pin_config^0,c
  1155   00244C  ECB8  F00B         	call	_gpio_pin_direction_intialize	;wreg free
  1156   002450  6E0B               	movwf	segment_intialize@ret^0,c
  1157                           
  1158                           ;ECU_LAYER/SEGMENT/segment.c: 20:       ret=gpio_pin_direction_intialize(&(seg->segment_
      +                          pins[3]));
  1159   002452  500A               	movf	segment_intialize@seg^0,w,c
  1160   002454  0F03               	addlw	3
  1161   002456  6E03               	movwf	gpio_pin_direction_intialize@_pin_config^0,c
  1162   002458  ECB8  F00B         	call	_gpio_pin_direction_intialize	;wreg free
  1163   00245C  6E0B               	movwf	segment_intialize@ret^0,c
  1164   00245E                     l352:
  1165   00245E  0012               	return		;funcret
  1166   002460                     __end_of_segment_intialize:
  1167                           	callstack 0
  1168                           
  1169 ;; *************** function _lcd_4bit_intialize *****************
  1170 ;; Defined at:
  1171 ;;		line 18 in file "ECU_LAYER/LCD/ecu_lcd.c"
  1172 ;; Parameters:    Size  Location     Type
  1173 ;;  lcd             1   14[COMRAM] PTR const struct .
  1174 ;;		 -> lcd(6), 
  1175 ;; Auto vars:     Size  Location     Type
  1176 ;;  ret             1   16[COMRAM] unsigned char 
  1177 ;; Return value:  Size  Location     Type
  1178 ;;                  1    wreg      unsigned char 
  1179 ;; Registers used:
  1180 ;;		wreg, fsr2l, fsr2h, status,2, status,0, prodl, prodh, cstack
  1181 ;; Tracked objects:
  1182 ;;		On entry : 0/0
  1183 ;;		On exit  : 0/0
  1184 ;;		Unchanged: 0/0
  1185 ;; Data sizes:     COMRAM   BANK0   BANK1   BANK2   BANK3   BANK4   BANK5   BANK6   BANK7   BANK8   BANK9  BANK10  BANK1
      +1  BANK12  BANK13  BANK14  BANK15
  1186 ;;      Params:         1       0       0       0       0       0       0       0       0       0       0       0       
      +0       0       0       0       0
  1187 ;;      Locals:         1       0       0       0       0       0       0       0       0       0       0       0       
      +0       0       0       0       0
  1188 ;;      Temps:          1       0       0       0       0       0       0       0       0       0       0       0       
      +0       0       0       0       0
  1189 ;;      Totals:         3       0       0       0       0       0       0       0       0       0       0       0       
      +0       0       0       0       0
  1190 ;;Total ram usage:        3 bytes
  1191 ;; Hardware stack levels used: 1
  1192 ;; Hardware stack levels required when called: 6
  1193 ;; This function calls:
  1194 ;;		_gpio_pin_intialize
  1195 ;;		_lcd_4bit_send_command
  1196 ;; This function is called by:
  1197 ;;		_intialization
  1198 ;; This function uses a non-reentrant model
  1199 ;;
  1200                           
  1201                           	psect	text4
  1202   001C68                     __ptext4:
  1203                           	callstack 0
  1204   001C68                     _lcd_4bit_intialize:
  1205                           	callstack 23
  1206   001C68                     
  1207                           ;ECU_LAYER/LCD/ecu_lcd.c: 22:     if (((void*)0) == lcd ){
  1208   001C68  500F               	movf	lcd_4bit_intialize@lcd^0,w,c
  1209   001C6A  A4D8               	btfss	status,2,c
  1210   001C6C  EF3A  F00E         	goto	u2571
  1211   001C70  EF3C  F00E         	goto	u2570
  1212   001C74                     u2571:
  1213   001C74  EF3E  F00E         	goto	l3645
  1214   001C78                     u2570:
  1215   001C78                     
  1216                           ;ECU_LAYER/LCD/ecu_lcd.c: 24:     }
  1217   001C78  EFA4  F00E         	goto	l218
  1218   001C7C                     l3645:
  1219                           
  1220                           ;ECU_LAYER/LCD/ecu_lcd.c: 27:         ret=gpio_pin_intialize(&(lcd->lcd_rs));
  1221   001C7C  C00F  F00B         	movff	lcd_4bit_intialize@lcd,gpio_pin_intialize@_pin_config
  1222   001C80  EC23  F011         	call	_gpio_pin_intialize	;wreg free
  1223   001C84  6E11               	movwf	lcd_4bit_intialize@ret^0,c
  1224                           
  1225                           ;ECU_LAYER/LCD/ecu_lcd.c: 28:         ret=gpio_pin_intialize(&(lcd->lcd_en));
  1226   001C86  280F               	incf	lcd_4bit_intialize@lcd^0,w,c
  1227   001C88  6E0B               	movwf	gpio_pin_intialize@_pin_config^0,c
  1228   001C8A  EC23  F011         	call	_gpio_pin_intialize	;wreg free
  1229   001C8E  6E11               	movwf	lcd_4bit_intialize@ret^0,c
  1230   001C90                     
  1231                           ;ECU_LAYER/LCD/ecu_lcd.c: 29:         for(lcd_counter=0;lcd_counter<4;lcd_counter++){
  1232   001C90  0E00               	movlw	0
  1233   001C92  6E58               	movwf	_lcd_counter^0,c
  1234   001C94                     l3649:
  1235   001C94  0E03               	movlw	3
  1236   001C96  6458               	cpfsgt	_lcd_counter^0,c
  1237   001C98  EF50  F00E         	goto	u2581
  1238   001C9C  EF52  F00E         	goto	u2580
  1239   001CA0                     u2581:
  1240   001CA0  EF54  F00E         	goto	l3653
  1241   001CA4                     u2580:
  1242   001CA4  EF5D  F00E         	goto	l3659
  1243   001CA8                     l3653:
  1244   001CA8  500F               	movf	lcd_4bit_intialize@lcd^0,w,c
  1245   001CAA  2458               	addwf	_lcd_counter^0,w,c
  1246   001CAC  0F02               	addlw	2
  1247   001CAE  6E0B               	movwf	gpio_pin_intialize@_pin_config^0,c
  1248   001CB0  EC23  F011         	call	_gpio_pin_intialize	;wreg free
  1249   001CB4                     
  1250                           ;ECU_LAYER/LCD/ecu_lcd.c: 31:         }
  1251   001CB4  2A58               	incf	_lcd_counter^0,f,c
  1252   001CB6  EF4A  F00E         	goto	l3649
  1253   001CBA                     l3659:
  1254                           
  1255                           ;ECU_LAYER/LCD/ecu_lcd.c: 33:          _delay((unsigned long)((20)*(8000000UL/4000.0)));
  1256   001CBA  0E34               	movlw	52
  1257   001CBC  6E10               	movwf	??_lcd_4bit_intialize^0,c
  1258   001CBE  0EF2               	movlw	242
  1259   001CC0                     u3047:
  1260   001CC0  2EE8               	decfsz	wreg,f,c
  1261   001CC2  D7FE               	bra	u3047
  1262   001CC4  2E10               	decfsz	??_lcd_4bit_intialize^0,f,c
  1263   001CC6  D7FC               	bra	u3047
  1264   001CC8                     
  1265                           ;ECU_LAYER/LCD/ecu_lcd.c: 34:         lcd_4bit_send_command(lcd,0X38);
  1266   001CC8  C00F  F00D         	movff	lcd_4bit_intialize@lcd,lcd_4bit_send_command@lcd
  1267   001CCC  0E38               	movlw	56
  1268   001CCE  6E0E               	movwf	lcd_4bit_send_command@command^0,c
  1269   001CD0  EC9D  F011         	call	_lcd_4bit_send_command	;wreg free
  1270   001CD4                     
  1271                           ;ECU_LAYER/LCD/ecu_lcd.c: 35:          _delay((unsigned long)((5)*(8000000UL/4000.0)));
  1272   001CD4  0E0D               	movlw	13
  1273   001CD6  6E10               	movwf	??_lcd_4bit_intialize^0,c
  1274   001CD8  0EFC               	movlw	252
  1275   001CDA                     u3057:
  1276   001CDA  2EE8               	decfsz	wreg,f,c
  1277   001CDC  D7FE               	bra	u3057
  1278   001CDE  2E10               	decfsz	??_lcd_4bit_intialize^0,f,c
  1279   001CE0  D7FC               	bra	u3057
  1280                           
  1281                           ;ECU_LAYER/LCD/ecu_lcd.c: 36:         lcd_4bit_send_command(lcd,0X38);
  1282   001CE2  C00F  F00D         	movff	lcd_4bit_intialize@lcd,lcd_4bit_send_command@lcd
  1283   001CE6  0E38               	movlw	56
  1284   001CE8  6E0E               	movwf	lcd_4bit_send_command@command^0,c
  1285   001CEA  EC9D  F011         	call	_lcd_4bit_send_command	;wreg free
  1286   001CEE                     
  1287                           ;ECU_LAYER/LCD/ecu_lcd.c: 37:          _delay((unsigned long)((150)*(8000000UL/4000000.0
      +                          )));
  1288   001CEE  0E64               	movlw	100
  1289   001CF0                     u3067:
  1290   001CF0  2EE8               	decfsz	wreg,f,c
  1291   001CF2  D7FE               	bra	u3067
  1292   001CF4                     
  1293                           ;ECU_LAYER/LCD/ecu_lcd.c: 38:         lcd_4bit_send_command(lcd,0X38);
  1294   001CF4  C00F  F00D         	movff	lcd_4bit_intialize@lcd,lcd_4bit_send_command@lcd
  1295   001CF8  0E38               	movlw	56
  1296   001CFA  6E0E               	movwf	lcd_4bit_send_command@command^0,c
  1297   001CFC  EC9D  F011         	call	_lcd_4bit_send_command	;wreg free
  1298   001D00                     
  1299                           ;ECU_LAYER/LCD/ecu_lcd.c: 40:          lcd_4bit_send_command(lcd,0X01);
  1300   001D00  C00F  F00D         	movff	lcd_4bit_intialize@lcd,lcd_4bit_send_command@lcd
  1301   001D04  0E01               	movlw	1
  1302   001D06  6E0E               	movwf	lcd_4bit_send_command@command^0,c
  1303   001D08  EC9D  F011         	call	_lcd_4bit_send_command	;wreg free
  1304   001D0C                     
  1305                           ;ECU_LAYER/LCD/ecu_lcd.c: 41:          lcd_4bit_send_command(lcd,0X02);
  1306   001D0C  C00F  F00D         	movff	lcd_4bit_intialize@lcd,lcd_4bit_send_command@lcd
  1307   001D10  0E02               	movlw	2
  1308   001D12  6E0E               	movwf	lcd_4bit_send_command@command^0,c
  1309   001D14  EC9D  F011         	call	_lcd_4bit_send_command	;wreg free
  1310   001D18                     
  1311                           ;ECU_LAYER/LCD/ecu_lcd.c: 42:          lcd_4bit_send_command(lcd,0X06);
  1312   001D18  C00F  F00D         	movff	lcd_4bit_intialize@lcd,lcd_4bit_send_command@lcd
  1313   001D1C  0E06               	movlw	6
  1314   001D1E  6E0E               	movwf	lcd_4bit_send_command@command^0,c
  1315   001D20  EC9D  F011         	call	_lcd_4bit_send_command	;wreg free
  1316   001D24                     
  1317                           ;ECU_LAYER/LCD/ecu_lcd.c: 43:          lcd_4bit_send_command(lcd,0X0C);
  1318   001D24  C00F  F00D         	movff	lcd_4bit_intialize@lcd,lcd_4bit_send_command@lcd
  1319   001D28  0E0C               	movlw	12
  1320   001D2A  6E0E               	movwf	lcd_4bit_send_command@command^0,c
  1321   001D2C  EC9D  F011         	call	_lcd_4bit_send_command	;wreg free
  1322   001D30                     
  1323                           ;ECU_LAYER/LCD/ecu_lcd.c: 45:          lcd_4bit_send_command(lcd,0X28);
  1324   001D30  C00F  F00D         	movff	lcd_4bit_intialize@lcd,lcd_4bit_send_command@lcd
  1325   001D34  0E28               	movlw	40
  1326   001D36  6E0E               	movwf	lcd_4bit_send_command@command^0,c
  1327   001D38  EC9D  F011         	call	_lcd_4bit_send_command	;wreg free
  1328   001D3C                     
  1329                           ;ECU_LAYER/LCD/ecu_lcd.c: 46:          lcd_4bit_send_command(lcd,0X80);
  1330   001D3C  C00F  F00D         	movff	lcd_4bit_intialize@lcd,lcd_4bit_send_command@lcd
  1331   001D40  0E80               	movlw	128
  1332   001D42  6E0E               	movwf	lcd_4bit_send_command@command^0,c
  1333   001D44  EC9D  F011         	call	_lcd_4bit_send_command	;wreg free
  1334   001D48                     l218:
  1335   001D48  0012               	return		;funcret
  1336   001D4A                     __end_of_lcd_4bit_intialize:
  1337                           	callstack 0
  1338                           
  1339 ;; *************** function _gpio_pin_intialize *****************
  1340 ;; Defined at:
  1341 ;;		line 197 in file "MCAL_LAYER/GPIO/hal_gpio.c"
  1342 ;; Parameters:    Size  Location     Type
  1343 ;;  _pin_config     1   10[COMRAM] PTR const struct .
  1344 ;;		 -> lcd$lcd_data(4), lcd(6), 
  1345 ;; Auto vars:     Size  Location     Type
  1346 ;;  ret             1   12[COMRAM] unsigned char 
  1347 ;; Return value:  Size  Location     Type
  1348 ;;                  1    wreg      unsigned char 
  1349 ;; Registers used:
  1350 ;;		wreg, fsr2l, fsr2h, status,2, status,0, prodl, prodh, cstack
  1351 ;; Tracked objects:
  1352 ;;		On entry : 0/0
  1353 ;;		On exit  : 0/0
  1354 ;;		Unchanged: 0/0
  1355 ;; Data sizes:     COMRAM   BANK0   BANK1   BANK2   BANK3   BANK4   BANK5   BANK6   BANK7   BANK8   BANK9  BANK10  BANK1
      +1  BANK12  BANK13  BANK14  BANK15
  1356 ;;      Params:         1       0       0       0       0       0       0       0       0       0       0       0       
      +0       0       0       0       0
  1357 ;;      Locals:         1       0       0       0       0       0       0       0       0       0       0       0       
      +0       0       0       0       0
  1358 ;;      Temps:          1       0       0       0       0       0       0       0       0       0       0       0       
      +0       0       0       0       0
  1359 ;;      Totals:         3       0       0       0       0       0       0       0       0       0       0       0       
      +0       0       0       0       0
  1360 ;;Total ram usage:        3 bytes
  1361 ;; Hardware stack levels used: 1
  1362 ;; Hardware stack levels required when called: 4
  1363 ;; This function calls:
  1364 ;;		_gpio_pin_Write_logic
  1365 ;;		_gpio_pin_direction_intialize
  1366 ;; This function is called by:
  1367 ;;		_lcd_4bit_intialize
  1368 ;;		_lcd_8bit_intialize
  1369 ;; This function uses a non-reentrant model
  1370 ;;
  1371                           
  1372                           	psect	text5
  1373   002246                     __ptext5:
  1374                           	callstack 0
  1375   002246                     _gpio_pin_intialize:
  1376                           	callstack 24
  1377   002246                     
  1378                           ;MCAL_LAYER/GPIO/hal_gpio.c: 199:     Std_ReturnType ret = (Std_ReturnType) 0x01;
  1379   002246  0E01               	movlw	1
  1380   002248  6E0D               	movwf	gpio_pin_intialize@ret^0,c
  1381                           
  1382                           ;MCAL_LAYER/GPIO/hal_gpio.c: 200:     if (((void*)0) == _pin_config || _pin_config->pin 
      +                          > (8 -1)){
  1383   00224A  500B               	movf	gpio_pin_intialize@_pin_config^0,w,c
  1384   00224C  B4D8               	btfsc	status,2,c
  1385   00224E  EF2B  F011         	goto	u2551
  1386   002252  EF2D  F011         	goto	u2550
  1387   002256                     u2551:
  1388   002256  EF3D  F011         	goto	l3633
  1389   00225A                     u2550:
  1390   00225A  500B               	movf	gpio_pin_intialize@_pin_config^0,w,c
  1391   00225C  6ED9               	movwf	fsr2l,c
  1392   00225E  6ADA               	clrf	fsr2h,c
  1393   002260  30DF               	rrcf	223,w,c
  1394   002262  32E8               	rrcf	wreg,f,c
  1395   002264  32E8               	rrcf	wreg,f,c
  1396   002266  0B07               	andlw	7
  1397   002268  6E0C               	movwf	??_gpio_pin_intialize^0,c
  1398   00226A  0E07               	movlw	7
  1399   00226C  640C               	cpfsgt	??_gpio_pin_intialize^0,c
  1400   00226E  EF3B  F011         	goto	u2561
  1401   002272  EF3D  F011         	goto	u2560
  1402   002276                     u2561:
  1403   002276  EF41  F011         	goto	l3635
  1404   00227A                     u2560:
  1405   00227A                     l3633:
  1406                           
  1407                           ;MCAL_LAYER/GPIO/hal_gpio.c: 201:         ret=(Std_ReturnType) 0x00;
  1408   00227A  0E00               	movlw	0
  1409   00227C  6E0D               	movwf	gpio_pin_intialize@ret^0,c
  1410                           
  1411                           ;MCAL_LAYER/GPIO/hal_gpio.c: 202:     }
  1412   00227E  EF4B  F011         	goto	l3637
  1413   002282                     l3635:
  1414                           
  1415                           ;MCAL_LAYER/GPIO/hal_gpio.c: 204:         gpio_pin_direction_intialize(_pin_config);
  1416   002282  C00B  F003         	movff	gpio_pin_intialize@_pin_config,gpio_pin_direction_intialize@_pin_config
  1417   002286  ECB8  F00B         	call	_gpio_pin_direction_intialize	;wreg free
  1418                           
  1419                           ;MCAL_LAYER/GPIO/hal_gpio.c: 205:         gpio_pin_Write_logic(_pin_config,LOW);
  1420   00228A  C00B  F003         	movff	gpio_pin_intialize@_pin_config,gpio_pin_Write_logic@_pin_config
  1421   00228E  0E00               	movlw	0
  1422   002290  6E04               	movwf	gpio_pin_Write_logic@logic^0,c
  1423   002292  EC4B  F00C         	call	_gpio_pin_Write_logic	;wreg free
  1424   002296                     l3637:
  1425                           
  1426                           ;MCAL_LAYER/GPIO/hal_gpio.c: 208:     return ret;
  1427   002296  500D               	movf	gpio_pin_intialize@ret^0,w,c
  1428   002298  0012               	return		;funcret
  1429   00229A                     __end_of_gpio_pin_intialize:
  1430                           	callstack 0
  1431                           
  1432 ;; *************** function _keypad_intialize *****************
  1433 ;; Defined at:
  1434 ;;		line 15 in file "ECU_LAYER/KEYPAD/ecu_keypad.c"
  1435 ;; Parameters:    Size  Location     Type
  1436 ;;  keypad_obj      1    9[COMRAM] PTR const struct .
  1437 ;;		 -> keypad(8), 
  1438 ;; Auto vars:     Size  Location     Type
  1439 ;;  columns_coun    1   12[COMRAM] unsigned char 
  1440 ;;  rows_counter    1   11[COMRAM] unsigned char 
  1441 ;;  ret             1   10[COMRAM] unsigned char 
  1442 ;; Return value:  Size  Location     Type
  1443 ;;                  1    wreg      unsigned char 
  1444 ;; Registers used:
  1445 ;;		wreg, fsr2l, fsr2h, status,2, status,0, prodl, prodh, cstack
  1446 ;; Tracked objects:
  1447 ;;		On entry : 0/0
  1448 ;;		On exit  : 0/0
  1449 ;;		Unchanged: 0/0
  1450 ;; Data sizes:     COMRAM   BANK0   BANK1   BANK2   BANK3   BANK4   BANK5   BANK6   BANK7   BANK8   BANK9  BANK10  BANK1
      +1  BANK12  BANK13  BANK14  BANK15
  1451 ;;      Params:         1       0       0       0       0       0       0       0       0       0       0       0       
      +0       0       0       0       0
  1452 ;;      Locals:         3       0       0       0       0       0       0       0       0       0       0       0       
      +0       0       0       0       0
  1453 ;;      Temps:          0       0       0       0       0       0       0       0       0       0       0       0       
      +0       0       0       0       0
  1454 ;;      Totals:         4       0       0       0       0       0       0       0       0       0       0       0       
      +0       0       0       0       0
  1455 ;;Total ram usage:        4 bytes
  1456 ;; Hardware stack levels used: 1
  1457 ;; Hardware stack levels required when called: 4
  1458 ;; This function calls:
  1459 ;;		_gpio_pin_direction_intialize
  1460 ;; This function is called by:
  1461 ;;		_intialization
  1462 ;; This function uses a non-reentrant model
  1463 ;;
  1464                           
  1465                           	psect	text6
  1466   002130                     __ptext6:
  1467                           	callstack 0
  1468   002130                     _keypad_intialize:
  1469                           	callstack 25
  1470   002130  0E00               	movlw	0
  1471   002132  6E0D               	movwf	keypad_intialize@columns_counter^0,c
  1472                           
  1473                           ;ECU_LAYER/KEYPAD/ecu_keypad.c: 17:     Std_ReturnType ret = (Std_ReturnType) 0x01;
  1474   002134  0E01               	movlw	1
  1475   002136  6E0B               	movwf	keypad_intialize@ret^0,c
  1476                           
  1477                           ;ECU_LAYER/KEYPAD/ecu_keypad.c: 18:     if (((void*)0) == keypad_obj ){
  1478   002138  500A               	movf	keypad_intialize@keypad_obj^0,w,c
  1479   00213A  A4D8               	btfss	status,2,c
  1480   00213C  EFA2  F010         	goto	u2591
  1481   002140  EFA4  F010         	goto	u2590
  1482   002144                     u2591:
  1483   002144  EFA6  F010         	goto	l3687
  1484   002148                     u2590:
  1485   002148                     
  1486                           ;ECU_LAYER/KEYPAD/ecu_keypad.c: 20:     }
  1487   002148  EFC7  F010         	goto	l172
  1488   00214C                     l3687:
  1489                           
  1490                           ;ECU_LAYER/KEYPAD/ecu_keypad.c: 22:         for(rows_counter=0;rows_counter<4;rows_count
      +                          er++){
  1491   00214C  0E00               	movlw	0
  1492   00214E  6E0C               	movwf	keypad_intialize@rows_counter^0,c
  1493   002150                     l3693:
  1494   002150  500A               	movf	keypad_intialize@keypad_obj^0,w,c
  1495   002152  240C               	addwf	keypad_intialize@rows_counter^0,w,c
  1496   002154  6E03               	movwf	gpio_pin_direction_intialize@_pin_config^0,c
  1497   002156  ECB8  F00B         	call	_gpio_pin_direction_intialize	;wreg free
  1498   00215A                     
  1499                           ;ECU_LAYER/KEYPAD/ecu_keypad.c: 24:         }
  1500   00215A  2A0C               	incf	keypad_intialize@rows_counter^0,f,c
  1501   00215C  0E03               	movlw	3
  1502   00215E  640C               	cpfsgt	keypad_intialize@rows_counter^0,c
  1503   002160  EFB4  F010         	goto	u2601
  1504   002164  EFB6  F010         	goto	u2600
  1505   002168                     u2601:
  1506   002168  EFA8  F010         	goto	l3693
  1507   00216C                     u2600:
  1508   00216C                     
  1509                           ;ECU_LAYER/KEYPAD/ecu_keypad.c: 25:         for(columns_counter=0;columns_counter<4;colu
      +                          mns_counter++){
  1510   00216C  0E00               	movlw	0
  1511   00216E  6E0D               	movwf	keypad_intialize@columns_counter^0,c
  1512   002170                     l3705:
  1513   002170  500A               	movf	keypad_intialize@keypad_obj^0,w,c
  1514   002172  240D               	addwf	keypad_intialize@columns_counter^0,w,c
  1515   002174  0F04               	addlw	4
  1516   002176  6E03               	movwf	gpio_pin_direction_intialize@_pin_config^0,c
  1517   002178  ECB8  F00B         	call	_gpio_pin_direction_intialize	;wreg free
  1518   00217C                     
  1519                           ;ECU_LAYER/KEYPAD/ecu_keypad.c: 27:         }
  1520   00217C  2A0D               	incf	keypad_intialize@columns_counter^0,f,c
  1521   00217E  0E03               	movlw	3
  1522   002180  640D               	cpfsgt	keypad_intialize@columns_counter^0,c
  1523   002182  EFC5  F010         	goto	u2611
  1524   002186  EFC7  F010         	goto	u2610
  1525   00218A                     u2611:
  1526   00218A  EFB8  F010         	goto	l3705
  1527   00218E                     u2610:
  1528   00218E                     l172:
  1529   00218E  0012               	return		;funcret
  1530   002190                     __end_of_keypad_intialize:
  1531                           	callstack 0
  1532                           
  1533 ;; *************** function _gpio_pin_direction_intialize *****************
  1534 ;; Defined at:
  1535 ;;		line 63 in file "MCAL_LAYER/GPIO/hal_gpio.c"
  1536 ;; Parameters:    Size  Location     Type
  1537 ;;  _pin_config     1    2[COMRAM] PTR const struct .
  1538 ;;		 -> Line_S2(1), Line_S1(1), Line_M2(1), Line_M1(1), 
  1539 ;;		 -> Line_H2(1), Line_H1(1), clock$segment_pins(4), clock(5), 
  1540 ;;		 -> keypad$columns_pins(4), keypad$rows_pins(4), keypad(8), lcd$lcd_data(4), 
  1541 ;;		 -> lcd(6), 
  1542 ;; Auto vars:     Size  Location     Type
  1543 ;;  ret             1    8[COMRAM] unsigned char 
  1544 ;; Return value:  Size  Location     Type
  1545 ;;                  1    wreg      unsigned char 
  1546 ;; Registers used:
  1547 ;;		wreg, fsr2l, fsr2h, status,2, status,0, prodl, prodh
  1548 ;; Tracked objects:
  1549 ;;		On entry : 0/0
  1550 ;;		On exit  : 0/0
  1551 ;;		Unchanged: 0/0
  1552 ;; Data sizes:     COMRAM   BANK0   BANK1   BANK2   BANK3   BANK4   BANK5   BANK6   BANK7   BANK8   BANK9  BANK10  BANK1
      +1  BANK12  BANK13  BANK14  BANK15
  1553 ;;      Params:         1       0       0       0       0       0       0       0       0       0       0       0       
      +0       0       0       0       0
  1554 ;;      Locals:         1       0       0       0       0       0       0       0       0       0       0       0       
      +0       0       0       0       0
  1555 ;;      Temps:          5       0       0       0       0       0       0       0       0       0       0       0       
      +0       0       0       0       0
  1556 ;;      Totals:         7       0       0       0       0       0       0       0       0       0       0       0       
      +0       0       0       0       0
  1557 ;;Total ram usage:        7 bytes
  1558 ;; Hardware stack levels used: 1
  1559 ;; Hardware stack levels required when called: 3
  1560 ;; This function calls:
  1561 ;;		Nothing
  1562 ;; This function is called by:
  1563 ;;		_intialization
  1564 ;;		_keypad_intialize
  1565 ;;		_segment_intialize
  1566 ;;		_gpio_pin_intialize
  1567 ;;		_Interrupt_INTx_Pin_Init
  1568 ;; This function uses a non-reentrant model
  1569 ;;
  1570                           
  1571                           	psect	text7
  1572   001770                     __ptext7:
  1573                           	callstack 0
  1574   001770                     _gpio_pin_direction_intialize:
  1575                           	callstack 25
  1576   001770                     
  1577                           ;MCAL_LAYER/GPIO/hal_gpio.c: 65:     Std_ReturnType ret = (Std_ReturnType) 0x01;
  1578   001770  0E01               	movlw	1
  1579   001772  6E09               	movwf	gpio_pin_direction_intialize@ret^0,c
  1580                           
  1581                           ;MCAL_LAYER/GPIO/hal_gpio.c: 66:     if (((void*)0) == _pin_config || _pin_config->pin >
      +                           (8 -1)){
  1582   001774  5003               	movf	gpio_pin_direction_intialize@_pin_config^0,w,c
  1583   001776  B4D8               	btfsc	status,2,c
  1584   001778  EFC0  F00B         	goto	u2201
  1585   00177C  EFC2  F00B         	goto	u2200
  1586   001780                     u2201:
  1587   001780  EFD2  F00B         	goto	l3383
  1588   001784                     u2200:
  1589   001784  5003               	movf	gpio_pin_direction_intialize@_pin_config^0,w,c
  1590   001786  6ED9               	movwf	fsr2l,c
  1591   001788  6ADA               	clrf	fsr2h,c
  1592   00178A  30DF               	rrcf	223,w,c
  1593   00178C  32E8               	rrcf	wreg,f,c
  1594   00178E  32E8               	rrcf	wreg,f,c
  1595   001790  0B07               	andlw	7
  1596   001792  6E04               	movwf	??_gpio_pin_direction_intialize^0,c
  1597   001794  0E07               	movlw	7
  1598   001796  6404               	cpfsgt	??_gpio_pin_direction_intialize^0,c
  1599   001798  EFD0  F00B         	goto	u2211
  1600   00179C  EFD2  F00B         	goto	u2210
  1601   0017A0                     u2211:
  1602   0017A0  EF29  F00C         	goto	l3391
  1603   0017A4                     u2210:
  1604   0017A4                     l3383:
  1605                           
  1606                           ;MCAL_LAYER/GPIO/hal_gpio.c: 67:         ret=(Std_ReturnType) 0x00;
  1607   0017A4  0E00               	movlw	0
  1608   0017A6  6E09               	movwf	gpio_pin_direction_intialize@ret^0,c
  1609                           
  1610                           ;MCAL_LAYER/GPIO/hal_gpio.c: 68:     }
  1611   0017A8  EF49  F00C         	goto	l3393
  1612   0017AC                     l3385:
  1613                           
  1614                           ;MCAL_LAYER/GPIO/hal_gpio.c: 74:               (*tris_registers[_pin_config->port] &= ~(
      +                          (uint_8)1<<_pin_config->pin));
  1615   0017AC  5003               	movf	gpio_pin_direction_intialize@_pin_config^0,w,c
  1616   0017AE  6ED9               	movwf	fsr2l,c
  1617   0017B0  6ADA               	clrf	fsr2h,c
  1618   0017B2  30DF               	rrcf	223,w,c
  1619   0017B4  32E8               	rrcf	wreg,f,c
  1620   0017B6  32E8               	rrcf	wreg,f,c
  1621   0017B8  0B07               	andlw	7
  1622   0017BA  6E04               	movwf	??_gpio_pin_direction_intialize^0,c
  1623   0017BC  0E01               	movlw	1
  1624   0017BE  6E05               	movwf	(??_gpio_pin_direction_intialize+1)^0,c
  1625   0017C0  2A04               	incf	??_gpio_pin_direction_intialize^0,f,c
  1626   0017C2  EFE5  F00B         	goto	u2224
  1627   0017C6                     u2225:
  1628   0017C6  90D8               	bcf	status,0,c
  1629   0017C8  3605               	rlcf	(??_gpio_pin_direction_intialize+1)^0,f,c
  1630   0017CA                     u2224:
  1631   0017CA  2E04               	decfsz	??_gpio_pin_direction_intialize^0,f,c
  1632   0017CC  EFE3  F00B         	goto	u2225
  1633   0017D0  5005               	movf	(??_gpio_pin_direction_intialize+1)^0,w,c
  1634   0017D2  0AFF               	xorlw	255
  1635   0017D4  6E06               	movwf	(??_gpio_pin_direction_intialize+2)^0,c
  1636   0017D6  5003               	movf	gpio_pin_direction_intialize@_pin_config^0,w,c
  1637   0017D8  6ED9               	movwf	fsr2l,c
  1638   0017DA  6ADA               	clrf	fsr2h,c
  1639   0017DC  50DF               	movf	223,w,c
  1640   0017DE  0B07               	andlw	7
  1641   0017E0  0D02               	mullw	2
  1642   0017E2  50F3               	movf	243,w,c
  1643   0017E4  0F94               	addlw	low _tris_registers
  1644   0017E6  6ED9               	movwf	fsr2l,c
  1645   0017E8  6ADA               	clrf	fsr2h,c
  1646   0017EA  CFDE F007          	movff	postinc2,??_gpio_pin_direction_intialize+3
  1647   0017EE  CFDD F008          	movff	postdec2,??_gpio_pin_direction_intialize+4
  1648   0017F2  C007  FFD9         	movff	??_gpio_pin_direction_intialize+3,fsr2l
  1649   0017F6  C008  FFDA         	movff	??_gpio_pin_direction_intialize+4,fsr2h
  1650   0017FA  5006               	movf	(??_gpio_pin_direction_intialize+2)^0,w,c
  1651   0017FC  16DF               	andwf	indf2,f,c
  1652                           
  1653                           ;MCAL_LAYER/GPIO/hal_gpio.c: 76:               break;
  1654   0017FE  EF49  F00C         	goto	l3393
  1655   001802                     l3387:
  1656                           
  1657                           ;MCAL_LAYER/GPIO/hal_gpio.c: 80:             (*tris_registers[_pin_config->port] |= ((ui
      +                          nt_8)1<<_pin_config->pin));
  1658   001802  5003               	movf	gpio_pin_direction_intialize@_pin_config^0,w,c
  1659   001804  6ED9               	movwf	fsr2l,c
  1660   001806  6ADA               	clrf	fsr2h,c
  1661   001808  30DF               	rrcf	223,w,c
  1662   00180A  32E8               	rrcf	wreg,f,c
  1663   00180C  32E8               	rrcf	wreg,f,c
  1664   00180E  0B07               	andlw	7
  1665   001810  6E04               	movwf	??_gpio_pin_direction_intialize^0,c
  1666   001812  0E01               	movlw	1
  1667   001814  6E05               	movwf	(??_gpio_pin_direction_intialize+1)^0,c
  1668   001816  2A04               	incf	??_gpio_pin_direction_intialize^0,f,c
  1669   001818  EF10  F00C         	goto	u2234
  1670   00181C                     u2235:
  1671   00181C  90D8               	bcf	status,0,c
  1672   00181E  3605               	rlcf	(??_gpio_pin_direction_intialize+1)^0,f,c
  1673   001820                     u2234:
  1674   001820  2E04               	decfsz	??_gpio_pin_direction_intialize^0,f,c
  1675   001822  EF0E  F00C         	goto	u2235
  1676   001826  5003               	movf	gpio_pin_direction_intialize@_pin_config^0,w,c
  1677   001828  6ED9               	movwf	fsr2l,c
  1678   00182A  6ADA               	clrf	fsr2h,c
  1679   00182C  50DF               	movf	223,w,c
  1680   00182E  0B07               	andlw	7
  1681   001830  0D02               	mullw	2
  1682   001832  50F3               	movf	243,w,c
  1683   001834  0F94               	addlw	low _tris_registers
  1684   001836  6ED9               	movwf	fsr2l,c
  1685   001838  6ADA               	clrf	fsr2h,c
  1686   00183A  CFDE F006          	movff	postinc2,??_gpio_pin_direction_intialize+2
  1687   00183E  CFDD F007          	movff	postdec2,??_gpio_pin_direction_intialize+3
  1688   001842  C006  FFD9         	movff	??_gpio_pin_direction_intialize+2,fsr2l
  1689   001846  C007  FFDA         	movff	??_gpio_pin_direction_intialize+3,fsr2h
  1690   00184A  5005               	movf	(??_gpio_pin_direction_intialize+1)^0,w,c
  1691   00184C  12DF               	iorwf	indf2,f,c
  1692                           
  1693                           ;MCAL_LAYER/GPIO/hal_gpio.c: 81:               break;
  1694   00184E  EF49  F00C         	goto	l3393
  1695   001852                     l3391:
  1696   001852  5003               	movf	gpio_pin_direction_intialize@_pin_config^0,w,c
  1697   001854  6ED9               	movwf	fsr2l,c
  1698   001856  6ADA               	clrf	fsr2h,c
  1699   001858  BCDF               	btfsc	indf2,6,c
  1700   00185A  EF31  F00C         	goto	u2241
  1701   00185E  EF34  F00C         	goto	u2240
  1702   001862                     u2241:
  1703   001862  0E01               	movlw	1
  1704   001864  EF35  F00C         	goto	u2250
  1705   001868                     u2240:
  1706   001868  0E00               	movlw	0
  1707   00186A                     u2250:
  1708   00186A  6E04               	movwf	??_gpio_pin_direction_intialize^0,c
  1709   00186C  6A05               	clrf	(??_gpio_pin_direction_intialize+1)^0,c
  1710                           
  1711                           ; Switch on 2 bytes has been partitioned into a top level switch of size 1, and 1 sub-sw
      +                          itches
  1712                           ; Switch size 1, requested type "simple"
  1713                           ; Number of cases is 1, Range of values is 0 to 0
  1714                           ; switch strategies available:
  1715                           ; Name         Instructions Cycles
  1716                           ; simple_byte            4     3 (average)
  1717                           ;	Chosen strategy is simple_byte
  1718   00186E  5005               	movf	(??_gpio_pin_direction_intialize+1)^0,w,c
  1719   001870  0A00               	xorlw	0	; case 0
  1720   001872  B4D8               	btfsc	status,2,c
  1721   001874  EF3E  F00C         	goto	l4203
  1722   001878  EFD2  F00B         	goto	l3383
  1723   00187C                     l4203:
  1724                           
  1725                           ; Switch size 1, requested type "simple"
  1726                           ; Number of cases is 2, Range of values is 0 to 1
  1727                           ; switch strategies available:
  1728                           ; Name         Instructions Cycles
  1729                           ; simple_byte            7     4 (average)
  1730                           ;	Chosen strategy is simple_byte
  1731   00187C  5004               	movf	??_gpio_pin_direction_intialize^0,w,c
  1732   00187E  0A00               	xorlw	0	; case 0
  1733   001880  B4D8               	btfsc	status,2,c
  1734   001882  EFD6  F00B         	goto	l3385
  1735   001886  0A01               	xorlw	1	; case 1
  1736   001888  B4D8               	btfsc	status,2,c
  1737   00188A  EF01  F00C         	goto	l3387
  1738   00188E  EFD2  F00B         	goto	l3383
  1739   001892                     l3393:
  1740                           
  1741                           ;MCAL_LAYER/GPIO/hal_gpio.c: 86:     return ret;
  1742   001892  5009               	movf	gpio_pin_direction_intialize@ret^0,w,c
  1743   001894  0012               	return		;funcret
  1744   001896                     __end_of_gpio_pin_direction_intialize:
  1745                           	callstack 0
  1746                           
  1747 ;; *************** function _clock_setting *****************
  1748 ;; Defined at:
  1749 ;;		line 67 in file "function.c"
  1750 ;; Parameters:    Size  Location     Type
  1751 ;;		None
  1752 ;; Auto vars:     Size  Location     Type
  1753 ;;		None
  1754 ;; Return value:  Size  Location     Type
  1755 ;;                  1    wreg      void 
  1756 ;; Registers used:
  1757 ;;		wreg, fsr0l, fsr0h, fsr1l, fsr1h, fsr2l, fsr2h, status,2, status,0, tblptrl, tblptrh, tblptru, prodl, prodh, cstack
  1758 ;; Tracked objects:
  1759 ;;		On entry : 0/0
  1760 ;;		On exit  : 0/0
  1761 ;;		Unchanged: 0/0
  1762 ;; Data sizes:     COMRAM   BANK0   BANK1   BANK2   BANK3   BANK4   BANK5   BANK6   BANK7   BANK8   BANK9  BANK10  BANK1
      +1  BANK12  BANK13  BANK14  BANK15
  1763 ;;      Params:         0       0       0       0       0       0       0       0       0       0       0       0       
      +0       0       0       0       0
  1764 ;;      Locals:         0       0       0       0       0       0       0       0       0       0       0       0       
      +0       0       0       0       0
  1765 ;;      Temps:          0       0       0       0       0       0       0       0       0       0       0       0       
      +0       0       0       0       0
  1766 ;;      Totals:         0       0       0       0       0       0       0       0       0       0       0       0       
      +0       0       0       0       0
  1767 ;;Total ram usage:        0 bytes
  1768 ;; Hardware stack levels used: 1
  1769 ;; Hardware stack levels required when called: 10
  1770 ;; This function calls:
  1771 ;;		_Set_Time
  1772 ;;		_keypad_get_value
  1773 ;;		_lcd_4bit_send_string_pos
  1774 ;; This function is called by:
  1775 ;;		_main
  1776 ;; This function uses a non-reentrant model
  1777 ;;
  1778                           
  1779                           	psect	text8
  1780   0021EC                     __ptext8:
  1781                           	callstack 0
  1782   0021EC                     _clock_setting:
  1783                           	callstack 20
  1784   0021EC                     
  1785                           ;function.c: 68:     lcd_4bit_send_string_pos(&lcd,1,1,"Press 1 to");
  1786   0021EC  0E69               	movlw	low _lcd
  1787   0021EE  6E14               	movwf	lcd_4bit_send_string_pos@lcd^0,c
  1788   0021F0  0E01               	movlw	1
  1789   0021F2  6E15               	movwf	lcd_4bit_send_string_pos@row^0,c
  1790   0021F4  0E01               	movlw	1
  1791   0021F6  6E16               	movwf	lcd_4bit_send_string_pos@column^0,c
  1792   0021F8  0E37               	movlw	low STR_2
  1793   0021FA  6E17               	movwf	lcd_4bit_send_string_pos@str^0,c
  1794   0021FC  5017               	movf	lcd_4bit_send_string_pos@str^0,w,c
  1795   0021FE  A4D8               	btfss	status,2,c
  1796   002200  0E10               	movlw	high __smallconst
  1797   002202  6E18               	movwf	(lcd_4bit_send_string_pos@str+1)^0,c
  1798   002204  EC8D  F012         	call	_lcd_4bit_send_string_pos	;wreg free
  1799                           
  1800                           ;function.c: 69:     lcd_4bit_send_string_pos(&lcd,2,1,"Set Time");
  1801   002208  0E69               	movlw	low _lcd
  1802   00220A  6E14               	movwf	lcd_4bit_send_string_pos@lcd^0,c
  1803   00220C  0E02               	movlw	2
  1804   00220E  6E15               	movwf	lcd_4bit_send_string_pos@row^0,c
  1805   002210  0E01               	movlw	1
  1806   002212  6E16               	movwf	lcd_4bit_send_string_pos@column^0,c
  1807   002214  0E42               	movlw	low STR_3
  1808   002216  6E17               	movwf	lcd_4bit_send_string_pos@str^0,c
  1809   002218  5017               	movf	lcd_4bit_send_string_pos@str^0,w,c
  1810   00221A  A4D8               	btfss	status,2,c
  1811   00221C  0E10               	movlw	high __smallconst
  1812   00221E  6E18               	movwf	(lcd_4bit_send_string_pos@str+1)^0,c
  1813   002220  EC8D  F012         	call	_lcd_4bit_send_string_pos	;wreg free
  1814   002224                     
  1815                           ;function.c: 70:     keypad_get_value(&keypad,&keypad_value);
  1816   002224  0E61               	movlw	low _keypad
  1817   002226  6E0B               	movwf	keypad_get_value@keypad_obj^0,c
  1818   002228  0E5C               	movlw	low _keypad_value
  1819   00222A  6E0C               	movwf	keypad_get_value@value^0,c
  1820   00222C  ECC2  F00D         	call	_keypad_get_value	;wreg free
  1821   002230                     
  1822                           ;function.c: 71:     if (keypad_value == 1){Set_Time();}
  1823   002230  045C               	decf	_keypad_value^0,w,c
  1824   002232  A4D8               	btfss	status,2,c
  1825   002234  EF1E  F011         	goto	u2721
  1826   002238  EF20  F011         	goto	u2720
  1827   00223C                     u2721:
  1828   00223C  EF22  F011         	goto	l138
  1829   002240                     u2720:
  1830   002240  EC2C  F008         	call	_Set_Time	;wreg free
  1831   002244                     l138:
  1832   002244  0012               	return		;funcret
  1833   002246                     __end_of_clock_setting:
  1834                           	callstack 0
  1835                           
  1836 ;; *************** function _Set_Time *****************
  1837 ;; Defined at:
  1838 ;;		line 75 in file "function.c"
  1839 ;; Parameters:    Size  Location     Type
  1840 ;;		None
  1841 ;; Auto vars:     Size  Location     Type
  1842 ;;  display_valu    4   48[COMRAM] unsigned char [4]
  1843 ;;  L_value         1   52[COMRAM] unsigned char 
  1844 ;; Return value:  Size  Location     Type
  1845 ;;                  1    wreg      void 
  1846 ;; Registers used:
  1847 ;;		wreg, fsr0l, fsr0h, fsr1l, fsr1h, fsr2l, fsr2h, status,2, status,0, tblptrl, tblptrh, tblptru, prodl, prodh, cstack
  1848 ;; Tracked objects:
  1849 ;;		On entry : 0/0
  1850 ;;		On exit  : 0/0
  1851 ;;		Unchanged: 0/0
  1852 ;; Data sizes:     COMRAM   BANK0   BANK1   BANK2   BANK3   BANK4   BANK5   BANK6   BANK7   BANK8   BANK9  BANK10  BANK1
      +1  BANK12  BANK13  BANK14  BANK15
  1853 ;;      Params:         0       0       0       0       0       0       0       0       0       0       0       0       
      +0       0       0       0       0
  1854 ;;      Locals:         5       0       0       0       0       0       0       0       0       0       0       0       
      +0       0       0       0       0
  1855 ;;      Temps:          2       0       0       0       0       0       0       0       0       0       0       0       
      +0       0       0       0       0
  1856 ;;      Totals:         7       0       0       0       0       0       0       0       0       0       0       0       
      +0       0       0       0       0
  1857 ;;Total ram usage:        7 bytes
  1858 ;; Hardware stack levels used: 1
  1859 ;; Hardware stack levels required when called: 9
  1860 ;; This function calls:
  1861 ;;		_Timer0_DeInit
  1862 ;;		_Timer0_Init
  1863 ;;		_convert_byte_to_string
  1864 ;;		_keypad_get_value
  1865 ;;		_lcd_4bit_send_command
  1866 ;;		_lcd_4bit_send_string_pos
  1867 ;;		_write_clock
  1868 ;; This function is called by:
  1869 ;;		_clock_setting
  1870 ;; This function uses a non-reentrant model
  1871 ;;
  1872                           
  1873                           	psect	text9
  1874   001058                     __ptext9:
  1875                           	callstack 0
  1876   001058                     _Set_Time:
  1877                           	callstack 20
  1878   001058                     
  1879                           ;function.c: 76:     uint_8 L_value=0xFF,display_value[4];
  1880   001058  6835               	setf	Set_Time@L_value^0,c
  1881   00105A                     
  1882                           ;function.c: 77:     Timer0_DeInit(&delay);
  1883   00105A  0E9E               	movlw	low _delay
  1884   00105C  6E03               	movwf	Timer0_DeInit@obj^0,c
  1885   00105E  EC42  F013         	call	_Timer0_DeInit	;wreg free
  1886   001062                     
  1887                           ;function.c: 78:     min=0,sec=0,hours=0;
  1888   001062  0E00               	movlw	0
  1889   001064  6E5F               	movwf	_min^0,c
  1890   001066  0E00               	movlw	0
  1891   001068  6E60               	movwf	_sec^0,c
  1892   00106A  0E00               	movlw	0
  1893   00106C  6E5E               	movwf	_hours^0,c
  1894   00106E                     
  1895                           ;function.c: 79:     write_clock();
  1896   00106E  EC15  F00B         	call	_write_clock	;wreg free
  1897   001072                     
  1898                           ;function.c: 80:     lcd_4bit_send_command(&lcd,0X01);
  1899   001072  0E69               	movlw	low _lcd
  1900   001074  6E0D               	movwf	lcd_4bit_send_command@lcd^0,c
  1901   001076  0E01               	movlw	1
  1902   001078  6E0E               	movwf	lcd_4bit_send_command@command^0,c
  1903   00107A  EC9D  F011         	call	_lcd_4bit_send_command	;wreg free
  1904   00107E                     
  1905                           ;function.c: 81:     _delay((unsigned long)((20)*(8000000UL/4000.0)));
  1906   00107E  0E34               	movlw	52
  1907   001080  6E2F               	movwf	??_Set_Time^0,c
  1908   001082  0EF2               	movlw	242
  1909   001084                     u3077:
  1910   001084  2EE8               	decfsz	wreg,f,c
  1911   001086  D7FE               	bra	u3077
  1912   001088  2E2F               	decfsz	??_Set_Time^0,f,c
  1913   00108A  D7FC               	bra	u3077
  1914   00108C                     
  1915                           ;function.c: 83:    lcd_4bit_send_string_pos(&lcd,1,1,"Hours = __");
  1916   00108C  0E69               	movlw	low _lcd
  1917   00108E  6E14               	movwf	lcd_4bit_send_string_pos@lcd^0,c
  1918   001090  0E01               	movlw	1
  1919   001092  6E15               	movwf	lcd_4bit_send_string_pos@row^0,c
  1920   001094  0E01               	movlw	1
  1921   001096  6E16               	movwf	lcd_4bit_send_string_pos@column^0,c
  1922   001098  0E2C               	movlw	low STR_4
  1923   00109A  6E17               	movwf	lcd_4bit_send_string_pos@str^0,c
  1924   00109C  5017               	movf	lcd_4bit_send_string_pos@str^0,w,c
  1925   00109E  A4D8               	btfss	status,2,c
  1926   0010A0  0E10               	movlw	high __smallconst
  1927   0010A2  6E18               	movwf	(lcd_4bit_send_string_pos@str+1)^0,c
  1928   0010A4  EC8D  F012         	call	_lcd_4bit_send_string_pos	;wreg free
  1929   0010A8                     
  1930                           ;function.c: 84:    display_counter=9;
  1931   0010A8  0E09               	movlw	9
  1932   0010AA  6E59               	movwf	_display_counter^0,c
  1933                           
  1934                           ;function.c: 85:    while(setting_counter != 2){
  1935   0010AC  EF89  F008         	goto	l3755
  1936   0010B0                     l3739:
  1937                           
  1938                           ;function.c: 86:         _delay((unsigned long)((200)*(8000000UL/4000.0)));
  1939   0010B0  0E03               	movlw	3
  1940   0010B2  6E30               	movwf	(??_Set_Time+1)^0,c
  1941   0010B4  0E08               	movlw	8
  1942   0010B6  6E2F               	movwf	??_Set_Time^0,c
  1943   0010B8  0E77               	movlw	119
  1944   0010BA                     u3087:
  1945   0010BA  2EE8               	decfsz	wreg,f,c
  1946   0010BC  D7FE               	bra	u3087
  1947   0010BE  2E2F               	decfsz	??_Set_Time^0,f,c
  1948   0010C0  D7FC               	bra	u3087
  1949   0010C2  2E30               	decfsz	(??_Set_Time+1)^0,f,c
  1950   0010C4  D7FA               	bra	u3087
  1951   0010C6  0000               	nop	
  1952   0010C8                     
  1953                           ;function.c: 87:      keypad_get_value(&keypad,&L_value);
  1954   0010C8  0E61               	movlw	low _keypad
  1955   0010CA  6E0B               	movwf	keypad_get_value@keypad_obj^0,c
  1956   0010CC  0E35               	movlw	low Set_Time@L_value
  1957   0010CE  6E0C               	movwf	keypad_get_value@value^0,c
  1958   0010D0  ECC2  F00D         	call	_keypad_get_value	;wreg free
  1959   0010D4                     
  1960                           ;function.c: 88:      if(L_value != 0xFF){
  1961   0010D4  2835               	incf	Set_Time@L_value^0,w,c
  1962   0010D6  B4D8               	btfsc	status,2,c
  1963   0010D8  EF70  F008         	goto	u2631
  1964   0010DC  EF72  F008         	goto	u2630
  1965   0010E0                     u2631:
  1966   0010E0  EF89  F008         	goto	l3755
  1967   0010E4                     u2630:
  1968   0010E4                     
  1969                           ;function.c: 89:          hours=(hours*10)+L_value;
  1970   0010E4  505E               	movf	_hours^0,w,c
  1971   0010E6  0D0A               	mullw	10
  1972   0010E8  50F3               	movf	243,w,c
  1973   0010EA  2435               	addwf	Set_Time@L_value^0,w,c
  1974   0010EC  6E5E               	movwf	_hours^0,c
  1975   0010EE                     
  1976                           ;function.c: 90:          convert_byte_to_string(L_value,display_value);
  1977   0010EE  0E31               	movlw	low Set_Time@display_value
  1978   0010F0  6E2D               	movwf	convert_byte_to_string@str^0,c
  1979   0010F2  5035               	movf	Set_Time@L_value^0,w,c
  1980   0010F4  EC30  F012         	call	_convert_byte_to_string
  1981   0010F8                     
  1982                           ;function.c: 91:        lcd_4bit_send_string_pos(&lcd,1,display_counter,display_value);
  1983   0010F8  0E69               	movlw	low _lcd
  1984   0010FA  6E14               	movwf	lcd_4bit_send_string_pos@lcd^0,c
  1985   0010FC  0E01               	movlw	1
  1986   0010FE  6E15               	movwf	lcd_4bit_send_string_pos@row^0,c
  1987   001100  C059  F016         	movff	_display_counter,lcd_4bit_send_string_pos@column
  1988   001104  0E31               	movlw	low Set_Time@display_value
  1989   001106  6E17               	movwf	lcd_4bit_send_string_pos@str^0,c
  1990   001108  6A18               	clrf	(lcd_4bit_send_string_pos@str+1)^0,c
  1991   00110A  EC8D  F012         	call	_lcd_4bit_send_string_pos	;wreg free
  1992   00110E                     
  1993                           ;function.c: 92:        display_counter++,setting_counter++;
  1994   00110E  2A59               	incf	_display_counter^0,f,c
  1995   001110  2A5A               	incf	_setting_counter^0,f,c
  1996   001112                     l3755:
  1997                           
  1998                           ;function.c: 85:    while(setting_counter != 2){
  1999   001112  0E02               	movlw	2
  2000   001114  185A               	xorwf	_setting_counter^0,w,c
  2001   001116  A4D8               	btfss	status,2,c
  2002   001118  EF90  F008         	goto	u2641
  2003   00111C  EF92  F008         	goto	u2640
  2004   001120                     u2641:
  2005   001120  EF58  F008         	goto	l3739
  2006   001124                     u2640:
  2007   001124                     
  2008                           ;function.c: 95:    _delay((unsigned long)((250)*(8000000UL/4000.0)));
  2009   001124  0E03               	movlw	3
  2010   001126  6E30               	movwf	(??_Set_Time+1)^0,c
  2011   001128  0E8A               	movlw	138
  2012   00112A  6E2F               	movwf	??_Set_Time^0,c
  2013   00112C  0E56               	movlw	86
  2014   00112E                     u3097:
  2015   00112E  2EE8               	decfsz	wreg,f,c
  2016   001130  D7FE               	bra	u3097
  2017   001132  2E2F               	decfsz	??_Set_Time^0,f,c
  2018   001134  D7FC               	bra	u3097
  2019   001136  2E30               	decfsz	(??_Set_Time+1)^0,f,c
  2020   001138  D7FA               	bra	u3097
  2021   00113A                     
  2022                           ;function.c: 96:    lcd_4bit_send_command(&lcd,0X01);
  2023   00113A  0E69               	movlw	low _lcd
  2024   00113C  6E0D               	movwf	lcd_4bit_send_command@lcd^0,c
  2025   00113E  0E01               	movlw	1
  2026   001140  6E0E               	movwf	lcd_4bit_send_command@command^0,c
  2027   001142  EC9D  F011         	call	_lcd_4bit_send_command	;wreg free
  2028   001146                     
  2029                           ;function.c: 97:     _delay((unsigned long)((20)*(8000000UL/4000.0)));
  2030   001146  0E34               	movlw	52
  2031   001148  6E2F               	movwf	??_Set_Time^0,c
  2032   00114A  0EF2               	movlw	242
  2033   00114C                     u3107:
  2034   00114C  2EE8               	decfsz	wreg,f,c
  2035   00114E  D7FE               	bra	u3107
  2036   001150  2E2F               	decfsz	??_Set_Time^0,f,c
  2037   001152  D7FC               	bra	u3107
  2038   001154                     
  2039                           ;function.c: 98:    setting_counter=0;
  2040   001154  0E00               	movlw	0
  2041   001156  6E5A               	movwf	_setting_counter^0,c
  2042   001158                     
  2043                           ;function.c: 100:    lcd_4bit_send_string_pos(&lcd,1,1,"Minutes = __");
  2044   001158  0E69               	movlw	low _lcd
  2045   00115A  6E14               	movwf	lcd_4bit_send_string_pos@lcd^0,c
  2046   00115C  0E01               	movlw	1
  2047   00115E  6E15               	movwf	lcd_4bit_send_string_pos@row^0,c
  2048   001160  0E01               	movlw	1
  2049   001162  6E16               	movwf	lcd_4bit_send_string_pos@column^0,c
  2050   001164  0E1F               	movlw	low STR_5
  2051   001166  6E17               	movwf	lcd_4bit_send_string_pos@str^0,c
  2052   001168  5017               	movf	lcd_4bit_send_string_pos@str^0,w,c
  2053   00116A  A4D8               	btfss	status,2,c
  2054   00116C  0E10               	movlw	high __smallconst
  2055   00116E  6E18               	movwf	(lcd_4bit_send_string_pos@str+1)^0,c
  2056   001170  EC8D  F012         	call	_lcd_4bit_send_string_pos	;wreg free
  2057   001174                     
  2058                           ;function.c: 101:    display_counter=11;
  2059   001174  0E0B               	movlw	11
  2060   001176  6E59               	movwf	_display_counter^0,c
  2061                           
  2062                           ;function.c: 102:    while(setting_counter != 2){
  2063   001178  EFEF  F008         	goto	l3785
  2064   00117C                     l3769:
  2065                           
  2066                           ;function.c: 103:         _delay((unsigned long)((200)*(8000000UL/4000.0)));
  2067   00117C  0E03               	movlw	3
  2068   00117E  6E30               	movwf	(??_Set_Time+1)^0,c
  2069   001180  0E08               	movlw	8
  2070   001182  6E2F               	movwf	??_Set_Time^0,c
  2071   001184  0E77               	movlw	119
  2072   001186                     u3117:
  2073   001186  2EE8               	decfsz	wreg,f,c
  2074   001188  D7FE               	bra	u3117
  2075   00118A  2E2F               	decfsz	??_Set_Time^0,f,c
  2076   00118C  D7FC               	bra	u3117
  2077   00118E  2E30               	decfsz	(??_Set_Time+1)^0,f,c
  2078   001190  D7FA               	bra	u3117
  2079   001192  0000               	nop	
  2080   001194                     
  2081                           ;function.c: 104:      keypad_get_value(&keypad,&L_value);
  2082   001194  0E61               	movlw	low _keypad
  2083   001196  6E0B               	movwf	keypad_get_value@keypad_obj^0,c
  2084   001198  0E35               	movlw	low Set_Time@L_value
  2085   00119A  6E0C               	movwf	keypad_get_value@value^0,c
  2086   00119C  ECC2  F00D         	call	_keypad_get_value	;wreg free
  2087   0011A0                     
  2088                           ;function.c: 105:      if(L_value != 0xFF){
  2089   0011A0  2835               	incf	Set_Time@L_value^0,w,c
  2090   0011A2  B4D8               	btfsc	status,2,c
  2091   0011A4  EFD6  F008         	goto	u2651
  2092   0011A8  EFD8  F008         	goto	u2650
  2093   0011AC                     u2651:
  2094   0011AC  EFEF  F008         	goto	l3785
  2095   0011B0                     u2650:
  2096   0011B0                     
  2097                           ;function.c: 106:          min=(min*10)+L_value;
  2098   0011B0  505F               	movf	_min^0,w,c
  2099   0011B2  0D0A               	mullw	10
  2100   0011B4  50F3               	movf	243,w,c
  2101   0011B6  2435               	addwf	Set_Time@L_value^0,w,c
  2102   0011B8  6E5F               	movwf	_min^0,c
  2103   0011BA                     
  2104                           ;function.c: 107:          convert_byte_to_string(L_value,display_value);
  2105   0011BA  0E31               	movlw	low Set_Time@display_value
  2106   0011BC  6E2D               	movwf	convert_byte_to_string@str^0,c
  2107   0011BE  5035               	movf	Set_Time@L_value^0,w,c
  2108   0011C0  EC30  F012         	call	_convert_byte_to_string
  2109   0011C4                     
  2110                           ;function.c: 108:        lcd_4bit_send_string_pos(&lcd,1,display_counter,display_value);
  2111   0011C4  0E69               	movlw	low _lcd
  2112   0011C6  6E14               	movwf	lcd_4bit_send_string_pos@lcd^0,c
  2113   0011C8  0E01               	movlw	1
  2114   0011CA  6E15               	movwf	lcd_4bit_send_string_pos@row^0,c
  2115   0011CC  C059  F016         	movff	_display_counter,lcd_4bit_send_string_pos@column
  2116   0011D0  0E31               	movlw	low Set_Time@display_value
  2117   0011D2  6E17               	movwf	lcd_4bit_send_string_pos@str^0,c
  2118   0011D4  6A18               	clrf	(lcd_4bit_send_string_pos@str+1)^0,c
  2119   0011D6  EC8D  F012         	call	_lcd_4bit_send_string_pos	;wreg free
  2120   0011DA                     
  2121                           ;function.c: 109:        display_counter++,setting_counter++;
  2122   0011DA  2A59               	incf	_display_counter^0,f,c
  2123   0011DC  2A5A               	incf	_setting_counter^0,f,c
  2124   0011DE                     l3785:
  2125                           
  2126                           ;function.c: 102:    while(setting_counter != 2){
  2127   0011DE  0E02               	movlw	2
  2128   0011E0  185A               	xorwf	_setting_counter^0,w,c
  2129   0011E2  A4D8               	btfss	status,2,c
  2130   0011E4  EFF6  F008         	goto	u2661
  2131   0011E8  EFF8  F008         	goto	u2660
  2132   0011EC                     u2661:
  2133   0011EC  EFBE  F008         	goto	l3769
  2134   0011F0                     u2660:
  2135   0011F0                     
  2136                           ;function.c: 112:    _delay((unsigned long)((250)*(8000000UL/4000.0)));
  2137   0011F0  0E03               	movlw	3
  2138   0011F2  6E30               	movwf	(??_Set_Time+1)^0,c
  2139   0011F4  0E8A               	movlw	138
  2140   0011F6  6E2F               	movwf	??_Set_Time^0,c
  2141   0011F8  0E56               	movlw	86
  2142   0011FA                     u3127:
  2143   0011FA  2EE8               	decfsz	wreg,f,c
  2144   0011FC  D7FE               	bra	u3127
  2145   0011FE  2E2F               	decfsz	??_Set_Time^0,f,c
  2146   001200  D7FC               	bra	u3127
  2147   001202  2E30               	decfsz	(??_Set_Time+1)^0,f,c
  2148   001204  D7FA               	bra	u3127
  2149   001206                     
  2150                           ;function.c: 113:    lcd_4bit_send_command(&lcd,0X01);
  2151   001206  0E69               	movlw	low _lcd
  2152   001208  6E0D               	movwf	lcd_4bit_send_command@lcd^0,c
  2153   00120A  0E01               	movlw	1
  2154   00120C  6E0E               	movwf	lcd_4bit_send_command@command^0,c
  2155   00120E  EC9D  F011         	call	_lcd_4bit_send_command	;wreg free
  2156   001212                     
  2157                           ;function.c: 114:     _delay((unsigned long)((20)*(8000000UL/4000.0)));
  2158   001212  0E34               	movlw	52
  2159   001214  6E2F               	movwf	??_Set_Time^0,c
  2160   001216  0EF2               	movlw	242
  2161   001218                     u3137:
  2162   001218  2EE8               	decfsz	wreg,f,c
  2163   00121A  D7FE               	bra	u3137
  2164   00121C  2E2F               	decfsz	??_Set_Time^0,f,c
  2165   00121E  D7FC               	bra	u3137
  2166   001220                     
  2167                           ;function.c: 115:    setting_counter=0;
  2168   001220  0E00               	movlw	0
  2169   001222  6E5A               	movwf	_setting_counter^0,c
  2170   001224                     
  2171                           ;function.c: 117:     lcd_4bit_send_string_pos(&lcd,1,1,"Seconds = __");
  2172   001224  0E69               	movlw	low _lcd
  2173   001226  6E14               	movwf	lcd_4bit_send_string_pos@lcd^0,c
  2174   001228  0E01               	movlw	1
  2175   00122A  6E15               	movwf	lcd_4bit_send_string_pos@row^0,c
  2176   00122C  0E01               	movlw	1
  2177   00122E  6E16               	movwf	lcd_4bit_send_string_pos@column^0,c
  2178   001230  0E12               	movlw	low STR_6
  2179   001232  6E17               	movwf	lcd_4bit_send_string_pos@str^0,c
  2180   001234  5017               	movf	lcd_4bit_send_string_pos@str^0,w,c
  2181   001236  A4D8               	btfss	status,2,c
  2182   001238  0E10               	movlw	high __smallconst
  2183   00123A  6E18               	movwf	(lcd_4bit_send_string_pos@str+1)^0,c
  2184   00123C  EC8D  F012         	call	_lcd_4bit_send_string_pos	;wreg free
  2185   001240                     
  2186                           ;function.c: 118:    display_counter=11;
  2187   001240  0E0B               	movlw	11
  2188   001242  6E59               	movwf	_display_counter^0,c
  2189                           
  2190                           ;function.c: 119:    while(setting_counter != 2){
  2191   001244  EF55  F009         	goto	l3815
  2192   001248                     l3799:
  2193                           
  2194                           ;function.c: 120:         _delay((unsigned long)((200)*(8000000UL/4000.0)));
  2195   001248  0E03               	movlw	3
  2196   00124A  6E30               	movwf	(??_Set_Time+1)^0,c
  2197   00124C  0E08               	movlw	8
  2198   00124E  6E2F               	movwf	??_Set_Time^0,c
  2199   001250  0E77               	movlw	119
  2200   001252                     u3147:
  2201   001252  2EE8               	decfsz	wreg,f,c
  2202   001254  D7FE               	bra	u3147
  2203   001256  2E2F               	decfsz	??_Set_Time^0,f,c
  2204   001258  D7FC               	bra	u3147
  2205   00125A  2E30               	decfsz	(??_Set_Time+1)^0,f,c
  2206   00125C  D7FA               	bra	u3147
  2207   00125E  0000               	nop	
  2208   001260                     
  2209                           ;function.c: 121:      keypad_get_value(&keypad,&L_value);
  2210   001260  0E61               	movlw	low _keypad
  2211   001262  6E0B               	movwf	keypad_get_value@keypad_obj^0,c
  2212   001264  0E35               	movlw	low Set_Time@L_value
  2213   001266  6E0C               	movwf	keypad_get_value@value^0,c
  2214   001268  ECC2  F00D         	call	_keypad_get_value	;wreg free
  2215   00126C                     
  2216                           ;function.c: 122:      if(L_value != 0xFF){
  2217   00126C  2835               	incf	Set_Time@L_value^0,w,c
  2218   00126E  B4D8               	btfsc	status,2,c
  2219   001270  EF3C  F009         	goto	u2671
  2220   001274  EF3E  F009         	goto	u2670
  2221   001278                     u2671:
  2222   001278  EF55  F009         	goto	l3815
  2223   00127C                     u2670:
  2224   00127C                     
  2225                           ;function.c: 123:          sec=(sec*10)+L_value;
  2226   00127C  5060               	movf	_sec^0,w,c
  2227   00127E  0D0A               	mullw	10
  2228   001280  50F3               	movf	243,w,c
  2229   001282  2435               	addwf	Set_Time@L_value^0,w,c
  2230   001284  6E60               	movwf	_sec^0,c
  2231   001286                     
  2232                           ;function.c: 124:          convert_byte_to_string(L_value,display_value);
  2233   001286  0E31               	movlw	low Set_Time@display_value
  2234   001288  6E2D               	movwf	convert_byte_to_string@str^0,c
  2235   00128A  5035               	movf	Set_Time@L_value^0,w,c
  2236   00128C  EC30  F012         	call	_convert_byte_to_string
  2237   001290                     
  2238                           ;function.c: 125:        lcd_4bit_send_string_pos(&lcd,1,display_counter,display_value);
  2239   001290  0E69               	movlw	low _lcd
  2240   001292  6E14               	movwf	lcd_4bit_send_string_pos@lcd^0,c
  2241   001294  0E01               	movlw	1
  2242   001296  6E15               	movwf	lcd_4bit_send_string_pos@row^0,c
  2243   001298  C059  F016         	movff	_display_counter,lcd_4bit_send_string_pos@column
  2244   00129C  0E31               	movlw	low Set_Time@display_value
  2245   00129E  6E17               	movwf	lcd_4bit_send_string_pos@str^0,c
  2246   0012A0  6A18               	clrf	(lcd_4bit_send_string_pos@str+1)^0,c
  2247   0012A2  EC8D  F012         	call	_lcd_4bit_send_string_pos	;wreg free
  2248   0012A6                     
  2249                           ;function.c: 126:        display_counter++,setting_counter++;
  2250   0012A6  2A59               	incf	_display_counter^0,f,c
  2251   0012A8  2A5A               	incf	_setting_counter^0,f,c
  2252   0012AA                     l3815:
  2253                           
  2254                           ;function.c: 119:    while(setting_counter != 2){
  2255   0012AA  0E02               	movlw	2
  2256   0012AC  185A               	xorwf	_setting_counter^0,w,c
  2257   0012AE  A4D8               	btfss	status,2,c
  2258   0012B0  EF5C  F009         	goto	u2681
  2259   0012B4  EF5E  F009         	goto	u2680
  2260   0012B8                     u2681:
  2261   0012B8  EF24  F009         	goto	l3799
  2262   0012BC                     u2680:
  2263   0012BC                     
  2264                           ;function.c: 129:    _delay((unsigned long)((250)*(8000000UL/4000.0)));
  2265   0012BC  0E03               	movlw	3
  2266   0012BE  6E30               	movwf	(??_Set_Time+1)^0,c
  2267   0012C0  0E8A               	movlw	138
  2268   0012C2  6E2F               	movwf	??_Set_Time^0,c
  2269   0012C4  0E56               	movlw	86
  2270   0012C6                     u3157:
  2271   0012C6  2EE8               	decfsz	wreg,f,c
  2272   0012C8  D7FE               	bra	u3157
  2273   0012CA  2E2F               	decfsz	??_Set_Time^0,f,c
  2274   0012CC  D7FC               	bra	u3157
  2275   0012CE  2E30               	decfsz	(??_Set_Time+1)^0,f,c
  2276   0012D0  D7FA               	bra	u3157
  2277   0012D2                     
  2278                           ;function.c: 130:    lcd_4bit_send_command(&lcd,0X01);
  2279   0012D2  0E69               	movlw	low _lcd
  2280   0012D4  6E0D               	movwf	lcd_4bit_send_command@lcd^0,c
  2281   0012D6  0E01               	movlw	1
  2282   0012D8  6E0E               	movwf	lcd_4bit_send_command@command^0,c
  2283   0012DA  EC9D  F011         	call	_lcd_4bit_send_command	;wreg free
  2284   0012DE                     
  2285                           ;function.c: 131:     _delay((unsigned long)((20)*(8000000UL/4000.0)));
  2286   0012DE  0E34               	movlw	52
  2287   0012E0  6E2F               	movwf	??_Set_Time^0,c
  2288   0012E2  0EF2               	movlw	242
  2289   0012E4                     u3167:
  2290   0012E4  2EE8               	decfsz	wreg,f,c
  2291   0012E6  D7FE               	bra	u3167
  2292   0012E8  2E2F               	decfsz	??_Set_Time^0,f,c
  2293   0012EA  D7FC               	bra	u3167
  2294                           
  2295                           ;function.c: 132:    write_clock();
  2296   0012EC  EC15  F00B         	call	_write_clock	;wreg free
  2297   0012F0                     
  2298                           ;function.c: 133:    setting_counter=0;
  2299   0012F0  0E00               	movlw	0
  2300   0012F2  6E5A               	movwf	_setting_counter^0,c
  2301   0012F4                     
  2302                           ;function.c: 134:    Timer0_Init(&delay);
  2303   0012F4  0E9E               	movlw	low _delay
  2304   0012F6  6E03               	movwf	Timer0_Init@obj^0,c
  2305   0012F8  EC5F  F00A         	call	_Timer0_Init	;wreg free
  2306   0012FC  0012               	return		;funcret
  2307   0012FE                     __end_of_Set_Time:
  2308                           	callstack 0
  2309                           
  2310 ;; *************** function _write_clock *****************
  2311 ;; Defined at:
  2312 ;;		line 45 in file "function.c"
  2313 ;; Parameters:    Size  Location     Type
  2314 ;;		None
  2315 ;; Auto vars:     Size  Location     Type
  2316 ;;		None
  2317 ;; Return value:  Size  Location     Type
  2318 ;;                  1    wreg      void 
  2319 ;; Registers used:
  2320 ;;		wreg, fsr2l, fsr2h, status,2, status,0, prodl, prodh, cstack
  2321 ;; Tracked objects:
  2322 ;;		On entry : 0/0
  2323 ;;		On exit  : 0/0
  2324 ;;		Unchanged: 0/0
  2325 ;; Data sizes:     COMRAM   BANK0   BANK1   BANK2   BANK3   BANK4   BANK5   BANK6   BANK7   BANK8   BANK9  BANK10  BANK1
      +1  BANK12  BANK13  BANK14  BANK15
  2326 ;;      Params:         0       0       0       0       0       0       0       0       0       0       0       0       
      +0       0       0       0       0
  2327 ;;      Locals:         0       0       0       0       0       0       0       0       0       0       0       0       
      +0       0       0       0       0
  2328 ;;      Temps:          1       0       0       0       0       0       0       0       0       0       0       0       
      +0       0       0       0       0
  2329 ;;      Totals:         1       0       0       0       0       0       0       0       0       0       0       0       
      +0       0       0       0       0
  2330 ;;Total ram usage:        1 bytes
  2331 ;; Hardware stack levels used: 1
  2332 ;; Hardware stack levels required when called: 5
  2333 ;; This function calls:
  2334 ;;		___awdiv
  2335 ;;		___awmod
  2336 ;;		_gpio_port_Write_logic
  2337 ;;		_segment_write_number
  2338 ;; This function is called by:
  2339 ;;		_main
  2340 ;;		_Set_Time
  2341 ;; This function uses a non-reentrant model
  2342 ;;
  2343                           
  2344                           	psect	text10
  2345   00162A                     __ptext10:
  2346                           	callstack 0
  2347   00162A                     _write_clock:
  2348                           	callstack 25
  2349   00162A                     
  2350                           ;function.c: 47: gpio_port_Write_logic(PORTA_INDEX,0x3E);
  2351   00162A  0E3E               	movlw	62
  2352   00162C  6E03               	movwf	gpio_port_Write_logic@logic^0,c
  2353   00162E  0E00               	movlw	0
  2354   001630  EC71  F012         	call	_gpio_port_Write_logic
  2355                           
  2356                           ;function.c: 48:     segment_write_number(&clock,hours/10);
  2357   001634  0E6F               	movlw	low _clock
  2358   001636  6E0B               	movwf	segment_write_number@seg^0,c
  2359   001638  C05E  F003         	movff	_hours,___awdiv@dividend
  2360   00163C  6A04               	clrf	(___awdiv@dividend+1)^0,c
  2361   00163E  0E00               	movlw	0
  2362   001640  6E06               	movwf	(___awdiv@divisor+1)^0,c
  2363   001642  0E0A               	movlw	10
  2364   001644  6E05               	movwf	___awdiv@divisor^0,c
  2365   001646  ECA5  F00E         	call	___awdiv	;wreg free
  2366   00164A  5003               	movf	?___awdiv^0,w,c
  2367   00164C  6E0C               	movwf	segment_write_number@number^0,c
  2368   00164E  EC35  F010         	call	_segment_write_number	;wreg free
  2369   001652                     
  2370                           ;function.c: 49:    _delay((unsigned long)((3)*(8000000UL/4000.0)));
  2371   001652  0E08               	movlw	8
  2372   001654  6E0E               	movwf	??_write_clock^0,c
  2373   001656  0ECA               	movlw	202
  2374   001658                     u3177:
  2375   001658  2EE8               	decfsz	wreg,f,c
  2376   00165A  D7FE               	bra	u3177
  2377   00165C  2E0E               	decfsz	??_write_clock^0,f,c
  2378   00165E  D7FC               	bra	u3177
  2379   001660                     
  2380                           ;function.c: 50:    gpio_port_Write_logic(PORTA_INDEX,0x3D);
  2381   001660  0E3D               	movlw	61
  2382   001662  6E03               	movwf	gpio_port_Write_logic@logic^0,c
  2383   001664  0E00               	movlw	0
  2384   001666  EC71  F012         	call	_gpio_port_Write_logic
  2385   00166A                     
  2386                           ;function.c: 51:     segment_write_number(&clock,hours%10);
  2387   00166A  0E6F               	movlw	low _clock
  2388   00166C  6E0B               	movwf	segment_write_number@seg^0,c
  2389   00166E  C05E  F003         	movff	_hours,___awmod@dividend
  2390   001672  6A04               	clrf	(___awmod@dividend+1)^0,c
  2391   001674  0E00               	movlw	0
  2392   001676  6E06               	movwf	(___awmod@divisor+1)^0,c
  2393   001678  0E0A               	movlw	10
  2394   00167A  6E05               	movwf	___awmod@divisor^0,c
  2395   00167C  EC07  F00F         	call	___awmod	;wreg free
  2396   001680  5003               	movf	?___awmod^0,w,c
  2397   001682  6E0C               	movwf	segment_write_number@number^0,c
  2398   001684  EC35  F010         	call	_segment_write_number	;wreg free
  2399   001688                     
  2400                           ;function.c: 52:    _delay((unsigned long)((3)*(8000000UL/4000.0)));
  2401   001688  0E08               	movlw	8
  2402   00168A  6E0E               	movwf	??_write_clock^0,c
  2403   00168C  0ECA               	movlw	202
  2404   00168E                     u3187:
  2405   00168E  2EE8               	decfsz	wreg,f,c
  2406   001690  D7FE               	bra	u3187
  2407   001692  2E0E               	decfsz	??_write_clock^0,f,c
  2408   001694  D7FC               	bra	u3187
  2409                           
  2410                           ;function.c: 53:     gpio_port_Write_logic(PORTA_INDEX,0x3B);
  2411   001696  0E3B               	movlw	59
  2412   001698  6E03               	movwf	gpio_port_Write_logic@logic^0,c
  2413   00169A  0E00               	movlw	0
  2414   00169C  EC71  F012         	call	_gpio_port_Write_logic
  2415                           
  2416                           ;function.c: 54:     segment_write_number(&clock,min/10);
  2417   0016A0  0E6F               	movlw	low _clock
  2418   0016A2  6E0B               	movwf	segment_write_number@seg^0,c
  2419   0016A4  C05F  F003         	movff	_min,___awdiv@dividend
  2420   0016A8  6A04               	clrf	(___awdiv@dividend+1)^0,c
  2421   0016AA  0E00               	movlw	0
  2422   0016AC  6E06               	movwf	(___awdiv@divisor+1)^0,c
  2423   0016AE  0E0A               	movlw	10
  2424   0016B0  6E05               	movwf	___awdiv@divisor^0,c
  2425   0016B2  ECA5  F00E         	call	___awdiv	;wreg free
  2426   0016B6  5003               	movf	?___awdiv^0,w,c
  2427   0016B8  6E0C               	movwf	segment_write_number@number^0,c
  2428   0016BA  EC35  F010         	call	_segment_write_number	;wreg free
  2429   0016BE                     
  2430                           ;function.c: 55:    _delay((unsigned long)((3)*(8000000UL/4000.0)));
  2431   0016BE  0E08               	movlw	8
  2432   0016C0  6E0E               	movwf	??_write_clock^0,c
  2433   0016C2  0ECA               	movlw	202
  2434   0016C4                     u3197:
  2435   0016C4  2EE8               	decfsz	wreg,f,c
  2436   0016C6  D7FE               	bra	u3197
  2437   0016C8  2E0E               	decfsz	??_write_clock^0,f,c
  2438   0016CA  D7FC               	bra	u3197
  2439   0016CC                     
  2440                           ;function.c: 56:     gpio_port_Write_logic(PORTA_INDEX,0x37);
  2441   0016CC  0E37               	movlw	55
  2442   0016CE  6E03               	movwf	gpio_port_Write_logic@logic^0,c
  2443   0016D0  0E00               	movlw	0
  2444   0016D2  EC71  F012         	call	_gpio_port_Write_logic
  2445   0016D6                     
  2446                           ;function.c: 57:     segment_write_number(&clock,min%10);
  2447   0016D6  0E6F               	movlw	low _clock
  2448   0016D8  6E0B               	movwf	segment_write_number@seg^0,c
  2449   0016DA  C05F  F003         	movff	_min,___awmod@dividend
  2450   0016DE  6A04               	clrf	(___awmod@dividend+1)^0,c
  2451   0016E0  0E00               	movlw	0
  2452   0016E2  6E06               	movwf	(___awmod@divisor+1)^0,c
  2453   0016E4  0E0A               	movlw	10
  2454   0016E6  6E05               	movwf	___awmod@divisor^0,c
  2455   0016E8  EC07  F00F         	call	___awmod	;wreg free
  2456   0016EC  5003               	movf	?___awmod^0,w,c
  2457   0016EE  6E0C               	movwf	segment_write_number@number^0,c
  2458   0016F0  EC35  F010         	call	_segment_write_number	;wreg free
  2459   0016F4                     
  2460                           ;function.c: 58:    _delay((unsigned long)((3)*(8000000UL/4000.0)));
  2461   0016F4  0E08               	movlw	8
  2462   0016F6  6E0E               	movwf	??_write_clock^0,c
  2463   0016F8  0ECA               	movlw	202
  2464   0016FA                     u3207:
  2465   0016FA  2EE8               	decfsz	wreg,f,c
  2466   0016FC  D7FE               	bra	u3207
  2467   0016FE  2E0E               	decfsz	??_write_clock^0,f,c
  2468   001700  D7FC               	bra	u3207
  2469                           
  2470                           ;function.c: 59:     gpio_port_Write_logic(PORTA_INDEX,0x2F);
  2471   001702  0E2F               	movlw	47
  2472   001704  6E03               	movwf	gpio_port_Write_logic@logic^0,c
  2473   001706  0E00               	movlw	0
  2474   001708  EC71  F012         	call	_gpio_port_Write_logic
  2475                           
  2476                           ;function.c: 60:     segment_write_number(&clock,sec/10);
  2477   00170C  0E6F               	movlw	low _clock
  2478   00170E  6E0B               	movwf	segment_write_number@seg^0,c
  2479   001710  C060  F003         	movff	_sec,___awdiv@dividend
  2480   001714  6A04               	clrf	(___awdiv@dividend+1)^0,c
  2481   001716  0E00               	movlw	0
  2482   001718  6E06               	movwf	(___awdiv@divisor+1)^0,c
  2483   00171A  0E0A               	movlw	10
  2484   00171C  6E05               	movwf	___awdiv@divisor^0,c
  2485   00171E  ECA5  F00E         	call	___awdiv	;wreg free
  2486   001722  5003               	movf	?___awdiv^0,w,c
  2487   001724  6E0C               	movwf	segment_write_number@number^0,c
  2488   001726  EC35  F010         	call	_segment_write_number	;wreg free
  2489   00172A                     
  2490                           ;function.c: 61:     _delay((unsigned long)((3)*(8000000UL/4000.0)));
  2491   00172A  0E08               	movlw	8
  2492   00172C  6E0E               	movwf	??_write_clock^0,c
  2493   00172E  0ECA               	movlw	202
  2494   001730                     u3217:
  2495   001730  2EE8               	decfsz	wreg,f,c
  2496   001732  D7FE               	bra	u3217
  2497   001734  2E0E               	decfsz	??_write_clock^0,f,c
  2498   001736  D7FC               	bra	u3217
  2499   001738                     
  2500                           ;function.c: 62:     gpio_port_Write_logic(PORTA_INDEX,0x1F);
  2501   001738  0E1F               	movlw	31
  2502   00173A  6E03               	movwf	gpio_port_Write_logic@logic^0,c
  2503   00173C  0E00               	movlw	0
  2504   00173E  EC71  F012         	call	_gpio_port_Write_logic
  2505   001742                     
  2506                           ;function.c: 63:     segment_write_number(&clock,sec%10);
  2507   001742  0E6F               	movlw	low _clock
  2508   001744  6E0B               	movwf	segment_write_number@seg^0,c
  2509   001746  C060  F003         	movff	_sec,___awmod@dividend
  2510   00174A  6A04               	clrf	(___awmod@dividend+1)^0,c
  2511   00174C  0E00               	movlw	0
  2512   00174E  6E06               	movwf	(___awmod@divisor+1)^0,c
  2513   001750  0E0A               	movlw	10
  2514   001752  6E05               	movwf	___awmod@divisor^0,c
  2515   001754  EC07  F00F         	call	___awmod	;wreg free
  2516   001758  5003               	movf	?___awmod^0,w,c
  2517   00175A  6E0C               	movwf	segment_write_number@number^0,c
  2518   00175C  EC35  F010         	call	_segment_write_number	;wreg free
  2519   001760                     
  2520                           ;function.c: 64:     _delay((unsigned long)((3)*(8000000UL/4000.0)));
  2521   001760  0E08               	movlw	8
  2522   001762  6E0E               	movwf	??_write_clock^0,c
  2523   001764  0ECA               	movlw	202
  2524   001766                     u3227:
  2525   001766  2EE8               	decfsz	wreg,f,c
  2526   001768  D7FE               	bra	u3227
  2527   00176A  2E0E               	decfsz	??_write_clock^0,f,c
  2528   00176C  D7FC               	bra	u3227
  2529   00176E  0012               	return		;funcret
  2530   001770                     __end_of_write_clock:
  2531                           	callstack 0
  2532                           
  2533 ;; *************** function _segment_write_number *****************
  2534 ;; Defined at:
  2535 ;;		line 27 in file "ECU_LAYER/SEGMENT/segment.c"
  2536 ;; Parameters:    Size  Location     Type
  2537 ;;  seg             1   10[COMRAM] PTR const struct .
  2538 ;;		 -> clock(5), 
  2539 ;;  number          1   11[COMRAM] unsigned char 
  2540 ;; Auto vars:     Size  Location     Type
  2541 ;;  ret             1   12[COMRAM] unsigned char 
  2542 ;; Return value:  Size  Location     Type
  2543 ;;                  1    wreg      unsigned char 
  2544 ;; Registers used:
  2545 ;;		wreg, fsr2l, fsr2h, status,2, status,0, prodl, prodh, cstack
  2546 ;; Tracked objects:
  2547 ;;		On entry : 0/0
  2548 ;;		On exit  : 0/0
  2549 ;;		Unchanged: 0/0
  2550 ;; Data sizes:     COMRAM   BANK0   BANK1   BANK2   BANK3   BANK4   BANK5   BANK6   BANK7   BANK8   BANK9  BANK10  BANK1
      +1  BANK12  BANK13  BANK14  BANK15
  2551 ;;      Params:         2       0       0       0       0       0       0       0       0       0       0       0       
      +0       0       0       0       0
  2552 ;;      Locals:         1       0       0       0       0       0       0       0       0       0       0       0       
      +0       0       0       0       0
  2553 ;;      Temps:          0       0       0       0       0       0       0       0       0       0       0       0       
      +0       0       0       0       0
  2554 ;;      Totals:         3       0       0       0       0       0       0       0       0       0       0       0       
      +0       0       0       0       0
  2555 ;;Total ram usage:        3 bytes
  2556 ;; Hardware stack levels used: 1
  2557 ;; Hardware stack levels required when called: 4
  2558 ;; This function calls:
  2559 ;;		_gpio_pin_Write_logic
  2560 ;; This function is called by:
  2561 ;;		_write_clock
  2562 ;; This function uses a non-reentrant model
  2563 ;;
  2564                           
  2565                           	psect	text11
  2566   00206A                     __ptext11:
  2567                           	callstack 0
  2568   00206A                     _segment_write_number:
  2569                           	callstack 25
  2570   00206A                     
  2571                           ;ECU_LAYER/SEGMENT/segment.c: 30:     if (((void*)0) == seg){
  2572   00206A  500B               	movf	segment_write_number@seg^0,w,c
  2573   00206C  A4D8               	btfss	status,2,c
  2574   00206E  EF3B  F010         	goto	u2271
  2575   002072  EF3D  F010         	goto	u2270
  2576   002076                     u2271:
  2577   002076  EF3F  F010         	goto	l3415
  2578   00207A                     u2270:
  2579   00207A                     
  2580                           ;ECU_LAYER/SEGMENT/segment.c: 32:     }
  2581   00207A  EF66  F010         	goto	l357
  2582   00207E                     l3415:
  2583                           
  2584                           ;ECU_LAYER/SEGMENT/segment.c: 35:         ret=gpio_pin_Write_logic(&(seg->segment_pins[0
      +                          ]),number & 0x01);
  2585   00207E  C00B  F003         	movff	segment_write_number@seg,gpio_pin_Write_logic@_pin_config
  2586   002082  500C               	movf	segment_write_number@number^0,w,c
  2587   002084  0B01               	andlw	1
  2588   002086  6E04               	movwf	gpio_pin_Write_logic@logic^0,c
  2589   002088  EC4B  F00C         	call	_gpio_pin_Write_logic	;wreg free
  2590   00208C  6E0D               	movwf	segment_write_number@ret^0,c
  2591                           
  2592                           ;ECU_LAYER/SEGMENT/segment.c: 36:         ret=gpio_pin_Write_logic(&(seg->segment_pins[1
      +                          ]),(number>>1) & 0x01);
  2593   00208E  280B               	incf	segment_write_number@seg^0,w,c
  2594   002090  6E03               	movwf	gpio_pin_Write_logic@_pin_config^0,c
  2595   002092  90D8               	bcf	status,0,c
  2596   002094  300C               	rrcf	segment_write_number@number^0,w,c
  2597   002096  0B01               	andlw	1
  2598   002098  6E04               	movwf	gpio_pin_Write_logic@logic^0,c
  2599   00209A  EC4B  F00C         	call	_gpio_pin_Write_logic	;wreg free
  2600   00209E  6E0D               	movwf	segment_write_number@ret^0,c
  2601                           
  2602                           ;ECU_LAYER/SEGMENT/segment.c: 37:         ret=gpio_pin_Write_logic(&(seg->segment_pins[2
      +                          ]),(number>>2) & 0x01);
  2603   0020A0  500B               	movf	segment_write_number@seg^0,w,c
  2604   0020A2  0F02               	addlw	2
  2605   0020A4  6E03               	movwf	gpio_pin_Write_logic@_pin_config^0,c
  2606   0020A6  400C               	rrncf	segment_write_number@number^0,w,c
  2607   0020A8  42E8               	rrncf	wreg,f,c
  2608   0020AA  0B3F               	andlw	63
  2609   0020AC  0B01               	andlw	1
  2610   0020AE  6E04               	movwf	gpio_pin_Write_logic@logic^0,c
  2611   0020B0  EC4B  F00C         	call	_gpio_pin_Write_logic	;wreg free
  2612   0020B4  6E0D               	movwf	segment_write_number@ret^0,c
  2613                           
  2614                           ;ECU_LAYER/SEGMENT/segment.c: 38:         ret=gpio_pin_Write_logic(&(seg->segment_pins[3
      +                          ]),(number>>3) & 0x01);
  2615   0020B6  500B               	movf	segment_write_number@seg^0,w,c
  2616   0020B8  0F03               	addlw	3
  2617   0020BA  6E03               	movwf	gpio_pin_Write_logic@_pin_config^0,c
  2618   0020BC  380C               	swapf	segment_write_number@number^0,w,c
  2619   0020BE  46E8               	rlncf	wreg,f,c
  2620   0020C0  0B1F               	andlw	31
  2621   0020C2  0B01               	andlw	1
  2622   0020C4  6E04               	movwf	gpio_pin_Write_logic@logic^0,c
  2623   0020C6  EC4B  F00C         	call	_gpio_pin_Write_logic	;wreg free
  2624   0020CA  6E0D               	movwf	segment_write_number@ret^0,c
  2625   0020CC                     l357:
  2626   0020CC  0012               	return		;funcret
  2627   0020CE                     __end_of_segment_write_number:
  2628                           	callstack 0
  2629                           
  2630 ;; *************** function _gpio_port_Write_logic *****************
  2631 ;; Defined at:
  2632 ;;		line 155 in file "MCAL_LAYER/GPIO/hal_gpio.c"
  2633 ;; Parameters:    Size  Location     Type
  2634 ;;  port            1    wreg     enum E2988
  2635 ;;  logic           1    2[COMRAM] unsigned char 
  2636 ;; Auto vars:     Size  Location     Type
  2637 ;;  port            1    5[COMRAM] enum E2988
  2638 ;;  ret             1    0        unsigned char 
  2639 ;; Return value:  Size  Location     Type
  2640 ;;                  1    wreg      unsigned char 
  2641 ;; Registers used:
  2642 ;;		wreg, fsr2l, fsr2h, status,2, status,0, prodl, prodh
  2643 ;; Tracked objects:
  2644 ;;		On entry : 0/0
  2645 ;;		On exit  : 0/0
  2646 ;;		Unchanged: 0/0
  2647 ;; Data sizes:     COMRAM   BANK0   BANK1   BANK2   BANK3   BANK4   BANK5   BANK6   BANK7   BANK8   BANK9  BANK10  BANK1
      +1  BANK12  BANK13  BANK14  BANK15
  2648 ;;      Params:         1       0       0       0       0       0       0       0       0       0       0       0       
      +0       0       0       0       0
  2649 ;;      Locals:         1       0       0       0       0       0       0       0       0       0       0       0       
      +0       0       0       0       0
  2650 ;;      Temps:          2       0       0       0       0       0       0       0       0       0       0       0       
      +0       0       0       0       0
  2651 ;;      Totals:         4       0       0       0       0       0       0       0       0       0       0       0       
      +0       0       0       0       0
  2652 ;;Total ram usage:        4 bytes
  2653 ;; Hardware stack levels used: 1
  2654 ;; Hardware stack levels required when called: 3
  2655 ;; This function calls:
  2656 ;;		Nothing
  2657 ;; This function is called by:
  2658 ;;		_write_clock
  2659 ;; This function uses a non-reentrant model
  2660 ;;
  2661                           
  2662                           	psect	text12
  2663   0024E2                     __ptext12:
  2664                           	callstack 0
  2665   0024E2                     _gpio_port_Write_logic:
  2666                           	callstack 26
  2667                           
  2668                           ;incstack = 0
  2669                           ;gpio_port_Write_logic@port stored from wreg
  2670   0024E2  6E06               	movwf	gpio_port_Write_logic@port^0,c
  2671   0024E4                     
  2672                           ;MCAL_LAYER/GPIO/hal_gpio.c: 158:     if ( port > (5 -1)){
  2673   0024E4  0E04               	movlw	4
  2674   0024E6  6406               	cpfsgt	gpio_port_Write_logic@port^0,c
  2675   0024E8  EF78  F012         	goto	u2261
  2676   0024EC  EF7A  F012         	goto	u2260
  2677   0024F0                     u2261:
  2678   0024F0  EF7C  F012         	goto	l3407
  2679   0024F4                     u2260:
  2680   0024F4                     
  2681                           ;MCAL_LAYER/GPIO/hal_gpio.c: 160:     }
  2682   0024F4  EF8C  F012         	goto	l480
  2683   0024F8                     l3407:
  2684                           
  2685                           ;MCAL_LAYER/GPIO/hal_gpio.c: 162:         *lat_registers[port]=logic;
  2686   0024F8  5006               	movf	gpio_port_Write_logic@port^0,w,c
  2687   0024FA  0D02               	mullw	2
  2688   0024FC  50F3               	movf	243,w,c
  2689   0024FE  0F8A               	addlw	low _lat_registers
  2690   002500  6ED9               	movwf	fsr2l,c
  2691   002502  6ADA               	clrf	fsr2h,c
  2692   002504  CFDE F004          	movff	postinc2,??_gpio_port_Write_logic
  2693   002508  CFDD F005          	movff	postdec2,??_gpio_port_Write_logic+1
  2694   00250C  C004  FFD9         	movff	??_gpio_port_Write_logic,fsr2l
  2695   002510  C005  FFDA         	movff	??_gpio_port_Write_logic+1,fsr2h
  2696   002514  C003  FFDF         	movff	gpio_port_Write_logic@logic,indf2
  2697   002518                     l480:
  2698   002518  0012               	return		;funcret
  2699   00251A                     __end_of_gpio_port_Write_logic:
  2700                           	callstack 0
  2701                           
  2702 ;; *************** function _lcd_4bit_send_string_pos *****************
  2703 ;; Defined at:
  2704 ;;		line 122 in file "ECU_LAYER/LCD/ecu_lcd.c"
  2705 ;; Parameters:    Size  Location     Type
  2706 ;;  lcd             1   19[COMRAM] PTR const struct .
  2707 ;;		 -> lcd(6), 
  2708 ;;  row             1   20[COMRAM] unsigned char 
  2709 ;;  column          1   21[COMRAM] unsigned char 
  2710 ;;  str             2   22[COMRAM] PTR unsigned char 
  2711 ;;		 -> STR_6(13), STR_5(13), Set_Time@display_value(4), STR_4(11), 
  2712 ;;		 -> STR_3(9), STR_2(11), STR_1(8), 
  2713 ;; Auto vars:     Size  Location     Type
  2714 ;;  ret             1    0        unsigned char 
  2715 ;; Return value:  Size  Location     Type
  2716 ;;                  1    wreg      unsigned char 
  2717 ;; Registers used:
  2718 ;;		wreg, fsr0l, fsr0h, fsr2l, fsr2h, status,2, status,0, tblptrl, tblptrh, tblptru, prodl, prodh, cstack
  2719 ;; Tracked objects:
  2720 ;;		On entry : 0/0
  2721 ;;		On exit  : 0/0
  2722 ;;		Unchanged: 0/0
  2723 ;; Data sizes:     COMRAM   BANK0   BANK1   BANK2   BANK3   BANK4   BANK5   BANK6   BANK7   BANK8   BANK9  BANK10  BANK1
      +1  BANK12  BANK13  BANK14  BANK15
  2724 ;;      Params:         5       0       0       0       0       0       0       0       0       0       0       0       
      +0       0       0       0       0
  2725 ;;      Locals:         0       0       0       0       0       0       0       0       0       0       0       0       
      +0       0       0       0       0
  2726 ;;      Temps:          0       0       0       0       0       0       0       0       0       0       0       0       
      +0       0       0       0       0
  2727 ;;      Totals:         5       0       0       0       0       0       0       0       0       0       0       0       
      +0       0       0       0       0
  2728 ;;Total ram usage:        5 bytes
  2729 ;; Hardware stack levels used: 1
  2730 ;; Hardware stack levels required when called: 7
  2731 ;; This function calls:
  2732 ;;		_lcd_4bit_send_string
  2733 ;;		_set_cursor_4bit
  2734 ;; This function is called by:
  2735 ;;		_welcome_message
  2736 ;;		_clock_setting
  2737 ;;		_Set_Time
  2738 ;; This function uses a non-reentrant model
  2739 ;;
  2740                           
  2741                           	psect	text13
  2742   00251A                     __ptext13:
  2743                           	callstack 0
  2744   00251A                     _lcd_4bit_send_string_pos:
  2745                           	callstack 22
  2746   00251A                     
  2747                           ;ECU_LAYER/LCD/ecu_lcd.c: 126:     if (((void*)0) == lcd ){
  2748   00251A  5014               	movf	lcd_4bit_send_string_pos@lcd^0,w,c
  2749   00251C  A4D8               	btfss	status,2,c
  2750   00251E  EF93  F012         	goto	u2461
  2751   002522  EF95  F012         	goto	u2460
  2752   002526                     u2461:
  2753   002526  EF97  F012         	goto	l3557
  2754   00252A                     u2460:
  2755   00252A                     
  2756                           ;ECU_LAYER/LCD/ecu_lcd.c: 128:     }
  2757   00252A  EFA7  F012         	goto	l246
  2758   00252E                     l3557:
  2759                           
  2760                           ;ECU_LAYER/LCD/ecu_lcd.c: 130:         set_cursor_4bit(lcd,row,column);
  2761   00252E  C014  F00F         	movff	lcd_4bit_send_string_pos@lcd,set_cursor_4bit@lcd
  2762   002532  C015  F010         	movff	lcd_4bit_send_string_pos@row,set_cursor_4bit@row
  2763   002536  C016  F011         	movff	lcd_4bit_send_string_pos@column,set_cursor_4bit@column
  2764   00253A  ECB4  F00F         	call	_set_cursor_4bit	;wreg free
  2765   00253E                     
  2766                           ;ECU_LAYER/LCD/ecu_lcd.c: 131:         lcd_4bit_send_string(lcd,str);
  2767   00253E  C014  F00F         	movff	lcd_4bit_send_string_pos@lcd,lcd_4bit_send_string@lcd
  2768   002542  C017  F010         	movff	lcd_4bit_send_string_pos@str,lcd_4bit_send_string@str
  2769   002546  C018  F011         	movff	lcd_4bit_send_string_pos@str+1,lcd_4bit_send_string@str+1
  2770   00254A  ECF9  F00F         	call	_lcd_4bit_send_string	;wreg free
  2771   00254E                     l246:
  2772   00254E  0012               	return		;funcret
  2773   002550                     __end_of_lcd_4bit_send_string_pos:
  2774                           	callstack 0
  2775                           
  2776 ;; *************** function _set_cursor_4bit *****************
  2777 ;; Defined at:
  2778 ;;		line 430 in file "ECU_LAYER/LCD/ecu_lcd.c"
  2779 ;; Parameters:    Size  Location     Type
  2780 ;;  lcd             1   14[COMRAM] PTR const struct .
  2781 ;;		 -> lcd(6), 
  2782 ;;  row             1   15[COMRAM] unsigned char 
  2783 ;;  column          1   16[COMRAM] unsigned char 
  2784 ;; Auto vars:     Size  Location     Type
  2785 ;;		None
  2786 ;; Return value:  Size  Location     Type
  2787 ;;                  1    wreg      void 
  2788 ;; Registers used:
  2789 ;;		wreg, fsr2l, fsr2h, status,2, status,0, prodl, prodh, cstack
  2790 ;; Tracked objects:
  2791 ;;		On entry : 0/0
  2792 ;;		On exit  : 0/0
  2793 ;;		Unchanged: 0/0
  2794 ;; Data sizes:     COMRAM   BANK0   BANK1   BANK2   BANK3   BANK4   BANK5   BANK6   BANK7   BANK8   BANK9  BANK10  BANK1
      +1  BANK12  BANK13  BANK14  BANK15
  2795 ;;      Params:         3       0       0       0       0       0       0       0       0       0       0       0       
      +0       0       0       0       0
  2796 ;;      Locals:         0       0       0       0       0       0       0       0       0       0       0       0       
      +0       0       0       0       0
  2797 ;;      Temps:          2       0       0       0       0       0       0       0       0       0       0       0       
      +0       0       0       0       0
  2798 ;;      Totals:         5       0       0       0       0       0       0       0       0       0       0       0       
      +0       0       0       0       0
  2799 ;;Total ram usage:        5 bytes
  2800 ;; Hardware stack levels used: 1
  2801 ;; Hardware stack levels required when called: 6
  2802 ;; This function calls:
  2803 ;;		_lcd_4bit_send_command
  2804 ;; This function is called by:
  2805 ;;		_lcd_4bit_send_string_pos
  2806 ;;		_lcd_4bit_send_data_pos
  2807 ;; This function uses a non-reentrant model
  2808 ;;
  2809                           
  2810                           	psect	text14
  2811   001F68                     __ptext14:
  2812                           	callstack 0
  2813   001F68                     _set_cursor_4bit:
  2814                           	callstack 22
  2815   001F68                     
  2816                           ;ECU_LAYER/LCD/ecu_lcd.c: 431:     column--;
  2817   001F68  0611               	decf	set_cursor_4bit@column^0,f,c
  2818                           
  2819                           ;ECU_LAYER/LCD/ecu_lcd.c: 432:     switch (row){
  2820   001F6A  EFDB  F00F         	goto	l3441
  2821   001F6E                     l3433:
  2822   001F6E  C00F  F00D         	movff	set_cursor_4bit@lcd,lcd_4bit_send_command@lcd
  2823   001F72  5011               	movf	set_cursor_4bit@column^0,w,c
  2824   001F74  0F80               	addlw	128
  2825   001F76  6E0E               	movwf	lcd_4bit_send_command@command^0,c
  2826   001F78  EC9D  F011         	call	_lcd_4bit_send_command	;wreg free
  2827   001F7C  EFF8  F00F         	goto	l343
  2828   001F80                     l3435:
  2829   001F80  C00F  F00D         	movff	set_cursor_4bit@lcd,lcd_4bit_send_command@lcd
  2830   001F84  5011               	movf	set_cursor_4bit@column^0,w,c
  2831   001F86  0FC0               	addlw	192
  2832   001F88  6E0E               	movwf	lcd_4bit_send_command@command^0,c
  2833   001F8A  EC9D  F011         	call	_lcd_4bit_send_command	;wreg free
  2834   001F8E  EFF8  F00F         	goto	l343
  2835   001F92                     l3437:
  2836   001F92  C00F  F00D         	movff	set_cursor_4bit@lcd,lcd_4bit_send_command@lcd
  2837   001F96  5011               	movf	set_cursor_4bit@column^0,w,c
  2838   001F98  0F94               	addlw	148
  2839   001F9A  6E0E               	movwf	lcd_4bit_send_command@command^0,c
  2840   001F9C  EC9D  F011         	call	_lcd_4bit_send_command	;wreg free
  2841   001FA0  EFF8  F00F         	goto	l343
  2842   001FA4                     l3439:
  2843   001FA4  C00F  F00D         	movff	set_cursor_4bit@lcd,lcd_4bit_send_command@lcd
  2844   001FA8  5011               	movf	set_cursor_4bit@column^0,w,c
  2845   001FAA  0FD4               	addlw	212
  2846   001FAC  6E0E               	movwf	lcd_4bit_send_command@command^0,c
  2847   001FAE  EC9D  F011         	call	_lcd_4bit_send_command	;wreg free
  2848   001FB2  EFF8  F00F         	goto	l343
  2849   001FB6                     l3441:
  2850   001FB6  5010               	movf	set_cursor_4bit@row^0,w,c
  2851   001FB8  6E12               	movwf	??_set_cursor_4bit^0,c
  2852   001FBA  6A13               	clrf	(??_set_cursor_4bit+1)^0,c
  2853                           
  2854                           ; Switch on 2 bytes has been partitioned into a top level switch of size 1, and 1 sub-sw
      +                          itches
  2855                           ; Switch size 1, requested type "simple"
  2856                           ; Number of cases is 1, Range of values is 0 to 0
  2857                           ; switch strategies available:
  2858                           ; Name         Instructions Cycles
  2859                           ; simple_byte            4     3 (average)
  2860                           ;	Chosen strategy is simple_byte
  2861   001FBC  5013               	movf	(??_set_cursor_4bit+1)^0,w,c
  2862   001FBE  0A00               	xorlw	0	; case 0
  2863   001FC0  B4D8               	btfsc	status,2,c
  2864   001FC2  EFE5  F00F         	goto	l4205
  2865   001FC6  EFF8  F00F         	goto	l343
  2866   001FCA                     l4205:
  2867                           
  2868                           ; Switch size 1, requested type "simple"
  2869                           ; Number of cases is 4, Range of values is 1 to 4
  2870                           ; switch strategies available:
  2871                           ; Name         Instructions Cycles
  2872                           ; simple_byte           13     7 (average)
  2873                           ;	Chosen strategy is simple_byte
  2874   001FCA  5012               	movf	??_set_cursor_4bit^0,w,c
  2875   001FCC  0A01               	xorlw	1	; case 1
  2876   001FCE  B4D8               	btfsc	status,2,c
  2877   001FD0  EFB7  F00F         	goto	l3433
  2878   001FD4  0A03               	xorlw	3	; case 2
  2879   001FD6  B4D8               	btfsc	status,2,c
  2880   001FD8  EFC0  F00F         	goto	l3435
  2881   001FDC  0A01               	xorlw	1	; case 3
  2882   001FDE  B4D8               	btfsc	status,2,c
  2883   001FE0  EFC9  F00F         	goto	l3437
  2884   001FE4  0A07               	xorlw	7	; case 4
  2885   001FE6  B4D8               	btfsc	status,2,c
  2886   001FE8  EFD2  F00F         	goto	l3439
  2887   001FEC  EFF8  F00F         	goto	l343
  2888   001FF0                     l343:
  2889   001FF0  0012               	return		;funcret
  2890   001FF2                     __end_of_set_cursor_4bit:
  2891                           	callstack 0
  2892                           
  2893 ;; *************** function _lcd_4bit_send_command *****************
  2894 ;; Defined at:
  2895 ;;		line 52 in file "ECU_LAYER/LCD/ecu_lcd.c"
  2896 ;; Parameters:    Size  Location     Type
  2897 ;;  lcd             1   12[COMRAM] PTR const struct .
  2898 ;;		 -> lcd(6), 
  2899 ;;  command         1   13[COMRAM] unsigned char 
  2900 ;; Auto vars:     Size  Location     Type
  2901 ;;  ret             1    0        unsigned char 
  2902 ;; Return value:  Size  Location     Type
  2903 ;;                  1    wreg      unsigned char 
  2904 ;; Registers used:
  2905 ;;		wreg, fsr2l, fsr2h, status,2, status,0, prodl, prodh, cstack
  2906 ;; Tracked objects:
  2907 ;;		On entry : 0/0
  2908 ;;		On exit  : 0/0
  2909 ;;		Unchanged: 0/0
  2910 ;; Data sizes:     COMRAM   BANK0   BANK1   BANK2   BANK3   BANK4   BANK5   BANK6   BANK7   BANK8   BANK9  BANK10  BANK1
      +1  BANK12  BANK13  BANK14  BANK15
  2911 ;;      Params:         2       0       0       0       0       0       0       0       0       0       0       0       
      +0       0       0       0       0
  2912 ;;      Locals:         0       0       0       0       0       0       0       0       0       0       0       0       
      +0       0       0       0       0
  2913 ;;      Temps:          0       0       0       0       0       0       0       0       0       0       0       0       
      +0       0       0       0       0
  2914 ;;      Totals:         2       0       0       0       0       0       0       0       0       0       0       0       
      +0       0       0       0       0
  2915 ;;Total ram usage:        2 bytes
  2916 ;; Hardware stack levels used: 1
  2917 ;; Hardware stack levels required when called: 5
  2918 ;; This function calls:
  2919 ;;		_gpio_pin_Write_logic
  2920 ;;		_send_4bit
  2921 ;;		_send_4bit_enable_signal
  2922 ;; This function is called by:
  2923 ;;		_welcome_message
  2924 ;;		_Set_Time
  2925 ;;		_lcd_4bit_intialize
  2926 ;;		_set_cursor_4bit
  2927 ;;		_lcd_4bit_send_custom_char
  2928 ;; This function uses a non-reentrant model
  2929 ;;
  2930                           
  2931                           	psect	text15
  2932   00233A                     __ptext15:
  2933                           	callstack 0
  2934   00233A                     _lcd_4bit_send_command:
  2935                           	callstack 22
  2936   00233A                     
  2937                           ;ECU_LAYER/LCD/ecu_lcd.c: 57:     if (((void*)0) == lcd ){
  2938   00233A  500D               	movf	lcd_4bit_send_command@lcd^0,w,c
  2939   00233C  A4D8               	btfss	status,2,c
  2940   00233E  EFA3  F011         	goto	u2171
  2941   002342  EFA5  F011         	goto	u2170
  2942   002346                     u2171:
  2943   002346  EFA7  F011         	goto	l3357
  2944   00234A                     u2170:
  2945   00234A                     
  2946                           ;ECU_LAYER/LCD/ecu_lcd.c: 59:     }
  2947   00234A  EFC2  F011         	goto	l223
  2948   00234E                     l3357:
  2949                           
  2950                           ;ECU_LAYER/LCD/ecu_lcd.c: 61:         gpio_pin_Write_logic(&(lcd->lcd_rs),LOW);
  2951   00234E  C00D  F003         	movff	lcd_4bit_send_command@lcd,gpio_pin_Write_logic@_pin_config
  2952   002352  0E00               	movlw	0
  2953   002354  6E04               	movwf	gpio_pin_Write_logic@logic^0,c
  2954   002356  EC4B  F00C         	call	_gpio_pin_Write_logic	;wreg free
  2955                           
  2956                           ;ECU_LAYER/LCD/ecu_lcd.c: 62:         send_4bit(lcd,command>>4);
  2957   00235A  C00D  F00B         	movff	lcd_4bit_send_command@lcd,send_4bit@lcd
  2958   00235E  380E               	swapf	lcd_4bit_send_command@command^0,w,c
  2959   002360  0B0F               	andlw	15
  2960   002362  6E0C               	movwf	send_4bit@_data_command^0,c
  2961   002364  ECE9  F011         	call	_send_4bit	;wreg free
  2962                           
  2963                           ;ECU_LAYER/LCD/ecu_lcd.c: 63:         send_4bit_enable_signal(lcd);
  2964   002368  C00D  F00B         	movff	lcd_4bit_send_command@lcd,send_4bit_enable_signal@lcd
  2965   00236C  EC23  F013         	call	_send_4bit_enable_signal	;wreg free
  2966                           
  2967                           ;ECU_LAYER/LCD/ecu_lcd.c: 64:         send_4bit(lcd,command);
  2968   002370  C00D  F00B         	movff	lcd_4bit_send_command@lcd,send_4bit@lcd
  2969   002374  C00E  F00C         	movff	lcd_4bit_send_command@command,send_4bit@_data_command
  2970   002378  ECE9  F011         	call	_send_4bit	;wreg free
  2971                           
  2972                           ;ECU_LAYER/LCD/ecu_lcd.c: 65:         send_4bit_enable_signal(lcd);
  2973   00237C  C00D  F00B         	movff	lcd_4bit_send_command@lcd,send_4bit_enable_signal@lcd
  2974   002380  EC23  F013         	call	_send_4bit_enable_signal	;wreg free
  2975   002384                     l223:
  2976   002384  0012               	return		;funcret
  2977   002386                     __end_of_lcd_4bit_send_command:
  2978                           	callstack 0
  2979                           
  2980 ;; *************** function _lcd_4bit_send_string *****************
  2981 ;; Defined at:
  2982 ;;		line 105 in file "ECU_LAYER/LCD/ecu_lcd.c"
  2983 ;; Parameters:    Size  Location     Type
  2984 ;;  lcd             1   14[COMRAM] PTR const struct .
  2985 ;;		 -> lcd(6), 
  2986 ;;  str             2   15[COMRAM] PTR unsigned char 
  2987 ;;		 -> STR_6(13), STR_5(13), Set_Time@display_value(4), STR_4(11), 
  2988 ;;		 -> STR_3(9), STR_2(11), STR_1(8), 
  2989 ;; Auto vars:     Size  Location     Type
  2990 ;;  ret             1    0        unsigned char 
  2991 ;; Return value:  Size  Location     Type
  2992 ;;                  1    wreg      unsigned char 
  2993 ;; Registers used:
  2994 ;;		wreg, fsr0l, fsr0h, fsr2l, fsr2h, status,2, status,0, tblptrl, tblptrh, tblptru, prodl, prodh, cstack
  2995 ;; Tracked objects:
  2996 ;;		On entry : 0/0
  2997 ;;		On exit  : 0/0
  2998 ;;		Unchanged: 0/0
  2999 ;; Data sizes:     COMRAM   BANK0   BANK1   BANK2   BANK3   BANK4   BANK5   BANK6   BANK7   BANK8   BANK9  BANK10  BANK1
      +1  BANK12  BANK13  BANK14  BANK15
  3000 ;;      Params:         3       0       0       0       0       0       0       0       0       0       0       0       
      +0       0       0       0       0
  3001 ;;      Locals:         0       0       0       0       0       0       0       0       0       0       0       0       
      +0       0       0       0       0
  3002 ;;      Temps:          0       0       0       0       0       0       0       0       0       0       0       0       
      +0       0       0       0       0
  3003 ;;      Totals:         3       0       0       0       0       0       0       0       0       0       0       0       
      +0       0       0       0       0
  3004 ;;Total ram usage:        3 bytes
  3005 ;; Hardware stack levels used: 1
  3006 ;; Hardware stack levels required when called: 6
  3007 ;; This function calls:
  3008 ;;		_lcd_4bit_send_data
  3009 ;; This function is called by:
  3010 ;;		_lcd_4bit_send_string_pos
  3011 ;; This function uses a non-reentrant model
  3012 ;;
  3013                           
  3014                           	psect	text16
  3015   001FF2                     __ptext16:
  3016                           	callstack 0
  3017   001FF2                     _lcd_4bit_send_string:
  3018                           	callstack 22
  3019   001FF2                     
  3020                           ;ECU_LAYER/LCD/ecu_lcd.c: 109:     if (((void*)0) == lcd ){
  3021   001FF2  500F               	movf	lcd_4bit_send_string@lcd^0,w,c
  3022   001FF4  A4D8               	btfss	status,2,c
  3023   001FF6  EFFF  F00F         	goto	u2321
  3024   001FFA  EF01  F010         	goto	u2320
  3025   001FFE                     u2321:
  3026   001FFE  EF1B  F010         	goto	l3455
  3027   002002                     u2320:
  3028   002002                     
  3029                           ;ECU_LAYER/LCD/ecu_lcd.c: 111:     }
  3030   002002  EF34  F010         	goto	l241
  3031   002006                     l3451:
  3032                           
  3033                           ;ECU_LAYER/LCD/ecu_lcd.c: 114:             lcd_4bit_send_data(lcd,*str++);
  3034   002006  C00F  F00D         	movff	lcd_4bit_send_string@lcd,lcd_4bit_send_data@lcd
  3035   00200A  C010  FFF6         	movff	lcd_4bit_send_string@str,tblptrl
  3036   00200E  C011  FFF7         	movff	lcd_4bit_send_string@str+1,tblptrh
  3037   002012  0E00               	movlw	low (__smallconst shr (0+16))
  3038   002014  6EF8               	movwf	tblptru,c
  3039   002016  0E0F               	movlw	(high __ramtop+-1)
  3040   002018  64F7               	cpfsgt	tblptrh,c
  3041   00201A  D003               	bra	u2337
  3042   00201C  0008               	tblrd		*
  3043   00201E  50F5               	movf	tablat,w,c
  3044   002020  D005               	bra	u2330
  3045   002022                     u2337:
  3046   002022  CFF6 FFE9          	movff	tblptrl,fsr0l
  3047   002026  CFF7 FFEA          	movff	tblptrh,fsr0h
  3048   00202A  50EF               	movf	indf0,w,c
  3049   00202C                     u2330:
  3050   00202C  6E0E               	movwf	lcd_4bit_send_data@data^0,c
  3051   00202E  ECC3  F011         	call	_lcd_4bit_send_data	;wreg free
  3052   002032  4A10               	infsnz	lcd_4bit_send_string@str^0,f,c
  3053   002034  2A11               	incf	(lcd_4bit_send_string@str+1)^0,f,c
  3054   002036                     l3455:
  3055                           
  3056                           ;ECU_LAYER/LCD/ecu_lcd.c: 113:         while(*str){
  3057   002036  C010  FFF6         	movff	lcd_4bit_send_string@str,tblptrl
  3058   00203A  C011  FFF7         	movff	lcd_4bit_send_string@str+1,tblptrh
  3059   00203E  0E00               	movlw	low (__smallconst shr (0+16))
  3060   002040  6EF8               	movwf	tblptru,c
  3061   002042  0E0F               	movlw	(high __ramtop+-1)
  3062   002044  64F7               	cpfsgt	tblptrh,c
  3063   002046  D003               	bra	u2347
  3064   002048  0008               	tblrd		*
  3065   00204A  50F5               	movf	tablat,w,c
  3066   00204C  D005               	bra	u2340
  3067   00204E                     u2347:
  3068   00204E  CFF6 FFE9          	movff	tblptrl,fsr0l
  3069   002052  CFF7 FFEA          	movff	tblptrh,fsr0h
  3070   002056  50EF               	movf	indf0,w,c
  3071   002058                     u2340:
  3072   002058  0900               	iorlw	0
  3073   00205A  A4D8               	btfss	status,2,c
  3074   00205C  EF32  F010         	goto	u2351
  3075   002060  EF34  F010         	goto	u2350
  3076   002064                     u2351:
  3077   002064  EF03  F010         	goto	l3451
  3078   002068                     u2350:
  3079   002068                     l241:
  3080   002068  0012               	return		;funcret
  3081   00206A                     __end_of_lcd_4bit_send_string:
  3082                           	callstack 0
  3083                           
  3084 ;; *************** function _lcd_4bit_send_data *****************
  3085 ;; Defined at:
  3086 ;;		line 72 in file "ECU_LAYER/LCD/ecu_lcd.c"
  3087 ;; Parameters:    Size  Location     Type
  3088 ;;  lcd             1   12[COMRAM] PTR const struct .
  3089 ;;		 -> lcd(6), 
  3090 ;;  data            1   13[COMRAM] unsigned char 
  3091 ;; Auto vars:     Size  Location     Type
  3092 ;;  ret             1    0        unsigned char 
  3093 ;; Return value:  Size  Location     Type
  3094 ;;                  1    wreg      unsigned char 
  3095 ;; Registers used:
  3096 ;;		wreg, fsr2l, fsr2h, status,2, status,0, prodl, prodh, cstack
  3097 ;; Tracked objects:
  3098 ;;		On entry : 0/0
  3099 ;;		On exit  : 0/0
  3100 ;;		Unchanged: 0/0
  3101 ;; Data sizes:     COMRAM   BANK0   BANK1   BANK2   BANK3   BANK4   BANK5   BANK6   BANK7   BANK8   BANK9  BANK10  BANK1
      +1  BANK12  BANK13  BANK14  BANK15
  3102 ;;      Params:         2       0       0       0       0       0       0       0       0       0       0       0       
      +0       0       0       0       0
  3103 ;;      Locals:         0       0       0       0       0       0       0       0       0       0       0       0       
      +0       0       0       0       0
  3104 ;;      Temps:          0       0       0       0       0       0       0       0       0       0       0       0       
      +0       0       0       0       0
  3105 ;;      Totals:         2       0       0       0       0       0       0       0       0       0       0       0       
      +0       0       0       0       0
  3106 ;;Total ram usage:        2 bytes
  3107 ;; Hardware stack levels used: 1
  3108 ;; Hardware stack levels required when called: 5
  3109 ;; This function calls:
  3110 ;;		_gpio_pin_Write_logic
  3111 ;;		_send_4bit
  3112 ;;		_send_4bit_enable_signal
  3113 ;; This function is called by:
  3114 ;;		_lcd_4bit_send_string
  3115 ;;		_lcd_4bit_send_data_pos
  3116 ;;		_lcd_4bit_send_custom_char
  3117 ;; This function uses a non-reentrant model
  3118 ;;
  3119                           
  3120                           	psect	text17
  3121   002386                     __ptext17:
  3122                           	callstack 0
  3123   002386                     _lcd_4bit_send_data:
  3124                           	callstack 22
  3125   002386                     
  3126                           ;ECU_LAYER/LCD/ecu_lcd.c: 76:     if (((void*)0) == lcd ){
  3127   002386  500D               	movf	lcd_4bit_send_data@lcd^0,w,c
  3128   002388  A4D8               	btfss	status,2,c
  3129   00238A  EFC9  F011         	goto	u2181
  3130   00238E  EFCB  F011         	goto	u2180
  3131   002392                     u2181:
  3132   002392  EFCD  F011         	goto	l3365
  3133   002396                     u2180:
  3134   002396                     
  3135                           ;ECU_LAYER/LCD/ecu_lcd.c: 78:     }
  3136   002396  EFE8  F011         	goto	l228
  3137   00239A                     l3365:
  3138                           
  3139                           ;ECU_LAYER/LCD/ecu_lcd.c: 80:       gpio_pin_Write_logic(&(lcd->lcd_rs),HIGH);
  3140   00239A  C00D  F003         	movff	lcd_4bit_send_data@lcd,gpio_pin_Write_logic@_pin_config
  3141   00239E  0E01               	movlw	1
  3142   0023A0  6E04               	movwf	gpio_pin_Write_logic@logic^0,c
  3143   0023A2  EC4B  F00C         	call	_gpio_pin_Write_logic	;wreg free
  3144                           
  3145                           ;ECU_LAYER/LCD/ecu_lcd.c: 81:         send_4bit(lcd,data>>4);
  3146   0023A6  C00D  F00B         	movff	lcd_4bit_send_data@lcd,send_4bit@lcd
  3147   0023AA  380E               	swapf	lcd_4bit_send_data@data^0,w,c
  3148   0023AC  0B0F               	andlw	15
  3149   0023AE  6E0C               	movwf	send_4bit@_data_command^0,c
  3150   0023B0  ECE9  F011         	call	_send_4bit	;wreg free
  3151                           
  3152                           ;ECU_LAYER/LCD/ecu_lcd.c: 82:         send_4bit_enable_signal(lcd);
  3153   0023B4  C00D  F00B         	movff	lcd_4bit_send_data@lcd,send_4bit_enable_signal@lcd
  3154   0023B8  EC23  F013         	call	_send_4bit_enable_signal	;wreg free
  3155                           
  3156                           ;ECU_LAYER/LCD/ecu_lcd.c: 83:         send_4bit(lcd,data);
  3157   0023BC  C00D  F00B         	movff	lcd_4bit_send_data@lcd,send_4bit@lcd
  3158   0023C0  C00E  F00C         	movff	lcd_4bit_send_data@data,send_4bit@_data_command
  3159   0023C4  ECE9  F011         	call	_send_4bit	;wreg free
  3160                           
  3161                           ;ECU_LAYER/LCD/ecu_lcd.c: 84:         send_4bit_enable_signal(lcd);
  3162   0023C8  C00D  F00B         	movff	lcd_4bit_send_data@lcd,send_4bit_enable_signal@lcd
  3163   0023CC  EC23  F013         	call	_send_4bit_enable_signal	;wreg free
  3164   0023D0                     l228:
  3165   0023D0  0012               	return		;funcret
  3166   0023D2                     __end_of_lcd_4bit_send_data:
  3167                           	callstack 0
  3168                           
  3169 ;; *************** function _send_4bit_enable_signal *****************
  3170 ;; Defined at:
  3171 ;;		line 400 in file "ECU_LAYER/LCD/ecu_lcd.c"
  3172 ;; Parameters:    Size  Location     Type
  3173 ;;  lcd             1   10[COMRAM] PTR const struct .
  3174 ;;		 -> lcd(6), 
  3175 ;; Auto vars:     Size  Location     Type
  3176 ;;		None
  3177 ;; Return value:  Size  Location     Type
  3178 ;;                  1    wreg      void 
  3179 ;; Registers used:
  3180 ;;		wreg, fsr2l, fsr2h, status,2, status,0, prodl, prodh, cstack
  3181 ;; Tracked objects:
  3182 ;;		On entry : 0/0
  3183 ;;		On exit  : 0/0
  3184 ;;		Unchanged: 0/0
  3185 ;; Data sizes:     COMRAM   BANK0   BANK1   BANK2   BANK3   BANK4   BANK5   BANK6   BANK7   BANK8   BANK9  BANK10  BANK1
      +1  BANK12  BANK13  BANK14  BANK15
  3186 ;;      Params:         1       0       0       0       0       0       0       0       0       0       0       0       
      +0       0       0       0       0
  3187 ;;      Locals:         0       0       0       0       0       0       0       0       0       0       0       0       
      +0       0       0       0       0
  3188 ;;      Temps:          0       0       0       0       0       0       0       0       0       0       0       0       
      +0       0       0       0       0
  3189 ;;      Totals:         1       0       0       0       0       0       0       0       0       0       0       0       
      +0       0       0       0       0
  3190 ;;Total ram usage:        1 bytes
  3191 ;; Hardware stack levels used: 1
  3192 ;; Hardware stack levels required when called: 4
  3193 ;; This function calls:
  3194 ;;		_gpio_pin_Write_logic
  3195 ;; This function is called by:
  3196 ;;		_lcd_4bit_send_command
  3197 ;;		_lcd_4bit_send_data
  3198 ;; This function uses a non-reentrant model
  3199 ;;
  3200                           
  3201                           	psect	text18
  3202   002646                     __ptext18:
  3203                           	callstack 0
  3204   002646                     _send_4bit_enable_signal:
  3205                           	callstack 22
  3206   002646                     
  3207                           ;ECU_LAYER/LCD/ecu_lcd.c: 402:     gpio_pin_Write_logic(&(lcd->lcd_en),HIGH);
  3208   002646  280B               	incf	send_4bit_enable_signal@lcd^0,w,c
  3209   002648  6E03               	movwf	gpio_pin_Write_logic@_pin_config^0,c
  3210   00264A  0E01               	movlw	1
  3211   00264C  6E04               	movwf	gpio_pin_Write_logic@logic^0,c
  3212   00264E  EC4B  F00C         	call	_gpio_pin_Write_logic	;wreg free
  3213   002652                     
  3214                           ;ECU_LAYER/LCD/ecu_lcd.c: 403:     _delay((unsigned long)((5)*(8000000UL/4000000.0)));
  3215   002652  0E03               	movlw	3
  3216   002654                     u3237:
  3217   002654  2EE8               	decfsz	wreg,f,c
  3218   002656  D7FE               	bra	u3237
  3219   002658  0000               	nop	
  3220   00265A                     
  3221                           ;ECU_LAYER/LCD/ecu_lcd.c: 404:     gpio_pin_Write_logic(&(lcd->lcd_en),LOW);
  3222   00265A  280B               	incf	send_4bit_enable_signal@lcd^0,w,c
  3223   00265C  6E03               	movwf	gpio_pin_Write_logic@_pin_config^0,c
  3224   00265E  0E00               	movlw	0
  3225   002660  6E04               	movwf	gpio_pin_Write_logic@logic^0,c
  3226   002662  EC4B  F00C         	call	_gpio_pin_Write_logic	;wreg free
  3227   002666  0012               	return		;funcret
  3228   002668                     __end_of_send_4bit_enable_signal:
  3229                           	callstack 0
  3230                           
  3231 ;; *************** function _send_4bit *****************
  3232 ;; Defined at:
  3233 ;;		line 390 in file "ECU_LAYER/LCD/ecu_lcd.c"
  3234 ;; Parameters:    Size  Location     Type
  3235 ;;  lcd             1   10[COMRAM] PTR const struct .
  3236 ;;		 -> lcd(6), 
  3237 ;;  _data_comman    1   11[COMRAM] unsigned char 
  3238 ;; Auto vars:     Size  Location     Type
  3239 ;;		None
  3240 ;; Return value:  Size  Location     Type
  3241 ;;                  1    wreg      void 
  3242 ;; Registers used:
  3243 ;;		wreg, fsr2l, fsr2h, status,2, status,0, prodl, prodh, cstack
  3244 ;; Tracked objects:
  3245 ;;		On entry : 0/0
  3246 ;;		On exit  : 0/0
  3247 ;;		Unchanged: 0/0
  3248 ;; Data sizes:     COMRAM   BANK0   BANK1   BANK2   BANK3   BANK4   BANK5   BANK6   BANK7   BANK8   BANK9  BANK10  BANK1
      +1  BANK12  BANK13  BANK14  BANK15
  3249 ;;      Params:         2       0       0       0       0       0       0       0       0       0       0       0       
      +0       0       0       0       0
  3250 ;;      Locals:         0       0       0       0       0       0       0       0       0       0       0       0       
      +0       0       0       0       0
  3251 ;;      Temps:          0       0       0       0       0       0       0       0       0       0       0       0       
      +0       0       0       0       0
  3252 ;;      Totals:         2       0       0       0       0       0       0       0       0       0       0       0       
      +0       0       0       0       0
  3253 ;;Total ram usage:        2 bytes
  3254 ;; Hardware stack levels used: 1
  3255 ;; Hardware stack levels required when called: 4
  3256 ;; This function calls:
  3257 ;;		_gpio_pin_Write_logic
  3258 ;; This function is called by:
  3259 ;;		_lcd_4bit_send_command
  3260 ;;		_lcd_4bit_send_data
  3261 ;; This function uses a non-reentrant model
  3262 ;;
  3263                           
  3264                           	psect	text19
  3265   0023D2                     __ptext19:
  3266                           	callstack 0
  3267   0023D2                     _send_4bit:
  3268                           	callstack 22
  3269   0023D2                     
  3270                           ;ECU_LAYER/LCD/ecu_lcd.c: 391:     gpio_pin_Write_logic(&(lcd->lcd_data[0]),(_data_comma
      +                          nd>>0)&0x01);
  3271   0023D2  500B               	movf	send_4bit@lcd^0,w,c
  3272   0023D4  0F02               	addlw	2
  3273   0023D6  6E03               	movwf	gpio_pin_Write_logic@_pin_config^0,c
  3274   0023D8  500C               	movf	send_4bit@_data_command^0,w,c
  3275   0023DA  0B01               	andlw	1
  3276   0023DC  6E04               	movwf	gpio_pin_Write_logic@logic^0,c
  3277   0023DE  EC4B  F00C         	call	_gpio_pin_Write_logic	;wreg free
  3278                           
  3279                           ;ECU_LAYER/LCD/ecu_lcd.c: 392:     gpio_pin_Write_logic(&(lcd->lcd_data[1]),(_data_comma
      +                          nd>>1)&0x01);
  3280   0023E2  500B               	movf	send_4bit@lcd^0,w,c
  3281   0023E4  0F03               	addlw	3
  3282   0023E6  6E03               	movwf	gpio_pin_Write_logic@_pin_config^0,c
  3283   0023E8  90D8               	bcf	status,0,c
  3284   0023EA  300C               	rrcf	send_4bit@_data_command^0,w,c
  3285   0023EC  0B01               	andlw	1
  3286   0023EE  6E04               	movwf	gpio_pin_Write_logic@logic^0,c
  3287   0023F0  EC4B  F00C         	call	_gpio_pin_Write_logic	;wreg free
  3288                           
  3289                           ;ECU_LAYER/LCD/ecu_lcd.c: 393:     gpio_pin_Write_logic(&(lcd->lcd_data[2]),(_data_comma
      +                          nd>>2)&0x01);
  3290   0023F4  500B               	movf	send_4bit@lcd^0,w,c
  3291   0023F6  0F04               	addlw	4
  3292   0023F8  6E03               	movwf	gpio_pin_Write_logic@_pin_config^0,c
  3293   0023FA  400C               	rrncf	send_4bit@_data_command^0,w,c
  3294   0023FC  42E8               	rrncf	wreg,f,c
  3295   0023FE  0B3F               	andlw	63
  3296   002400  0B01               	andlw	1
  3297   002402  6E04               	movwf	gpio_pin_Write_logic@logic^0,c
  3298   002404  EC4B  F00C         	call	_gpio_pin_Write_logic	;wreg free
  3299                           
  3300                           ;ECU_LAYER/LCD/ecu_lcd.c: 394:     gpio_pin_Write_logic(&(lcd->lcd_data[3]),(_data_comma
      +                          nd>>3)&0x01);
  3301   002408  500B               	movf	send_4bit@lcd^0,w,c
  3302   00240A  0F05               	addlw	5
  3303   00240C  6E03               	movwf	gpio_pin_Write_logic@_pin_config^0,c
  3304   00240E  380C               	swapf	send_4bit@_data_command^0,w,c
  3305   002410  46E8               	rlncf	wreg,f,c
  3306   002412  0B1F               	andlw	31
  3307   002414  0B01               	andlw	1
  3308   002416  6E04               	movwf	gpio_pin_Write_logic@logic^0,c
  3309   002418  EC4B  F00C         	call	_gpio_pin_Write_logic	;wreg free
  3310   00241C  0012               	return		;funcret
  3311   00241E                     __end_of_send_4bit:
  3312                           	callstack 0
  3313                           
  3314 ;; *************** function _keypad_get_value *****************
  3315 ;; Defined at:
  3316 ;;		line 36 in file "ECU_LAYER/KEYPAD/ecu_keypad.c"
  3317 ;; Parameters:    Size  Location     Type
  3318 ;;  keypad_obj      1   10[COMRAM] PTR const struct .
  3319 ;;		 -> keypad(8), 
  3320 ;;  value           1   11[COMRAM] PTR unsigned char 
  3321 ;;		 -> Set_Time@L_value(1), keypad_value(1), 
  3322 ;; Auto vars:     Size  Location     Type
  3323 ;;  columns_coun    1   16[COMRAM] unsigned char 
  3324 ;;  rows_counter    1   15[COMRAM] unsigned char 
  3325 ;;  rows_counter    1   14[COMRAM] unsigned char 
  3326 ;;  col_val         1   13[COMRAM] unsigned char 
  3327 ;;  ret             1    0        unsigned char 
  3328 ;; Return value:  Size  Location     Type
  3329 ;;                  1    wreg      unsigned char 
  3330 ;; Registers used:
  3331 ;;		wreg, fsr1l, fsr1h, fsr2l, fsr2h, status,2, status,0, tblptrl, tblptrh, tblptru, prodl, prodh, cstack
  3332 ;; Tracked objects:
  3333 ;;		On entry : 0/0
  3334 ;;		On exit  : 0/0
  3335 ;;		Unchanged: 0/0
  3336 ;; Data sizes:     COMRAM   BANK0   BANK1   BANK2   BANK3   BANK4   BANK5   BANK6   BANK7   BANK8   BANK9  BANK10  BANK1
      +1  BANK12  BANK13  BANK14  BANK15
  3337 ;;      Params:         2       0       0       0       0       0       0       0       0       0       0       0       
      +0       0       0       0       0
  3338 ;;      Locals:         4       0       0       0       0       0       0       0       0       0       0       0       
      +0       0       0       0       0
  3339 ;;      Temps:          1       0       0       0       0       0       0       0       0       0       0       0       
      +0       0       0       0       0
  3340 ;;      Totals:         7       0       0       0       0       0       0       0       0       0       0       0       
      +0       0       0       0       0
  3341 ;;Total ram usage:        7 bytes
  3342 ;; Hardware stack levels used: 1
  3343 ;; Hardware stack levels required when called: 4
  3344 ;; This function calls:
  3345 ;;		_gpio_pin_Read_logic
  3346 ;;		_gpio_pin_Write_logic
  3347 ;; This function is called by:
  3348 ;;		_clock_setting
  3349 ;;		_Set_Time
  3350 ;; This function uses a non-reentrant model
  3351 ;;
  3352                           
  3353                           	psect	text20
  3354   001B84                     __ptext20:
  3355                           	callstack 0
  3356   001B84                     _keypad_get_value:
  3357                           	callstack 25
  3358   001B84                     
  3359                           ;ECU_LAYER/KEYPAD/ecu_keypad.c: 40:        uint_8 rows_counter=0, rows_counter2=0,column
      +                          s_counter=0,col_val=0;
  3360   001B84  0E00               	movlw	0
  3361   001B86  6E10               	movwf	keypad_get_value@rows_counter^0,c
  3362   001B88  0E00               	movlw	0
  3363   001B8A  6E0F               	movwf	keypad_get_value@rows_counter2^0,c
  3364   001B8C  0E00               	movlw	0
  3365   001B8E  6E11               	movwf	keypad_get_value@columns_counter^0,c
  3366   001B90  0E00               	movlw	0
  3367   001B92  6E0E               	movwf	keypad_get_value@col_val^0,c
  3368                           
  3369                           ;ECU_LAYER/KEYPAD/ecu_keypad.c: 41:     if (((void*)0) == keypad_obj && (((void*)0) == v
      +                          alue)){
  3370   001B94  500B               	movf	keypad_get_value@keypad_obj^0,w,c
  3371   001B96  A4D8               	btfss	status,2,c
  3372   001B98  EFD0  F00D         	goto	u2471
  3373   001B9C  EFD2  F00D         	goto	u2470
  3374   001BA0                     u2471:
  3375   001BA0  EFDC  F00D         	goto	l3569
  3376   001BA4                     u2470:
  3377   001BA4  500C               	movf	keypad_get_value@value^0,w,c
  3378   001BA6  A4D8               	btfss	status,2,c
  3379   001BA8  EFD8  F00D         	goto	u2481
  3380   001BAC  EFDA  F00D         	goto	u2480
  3381   001BB0                     u2481:
  3382   001BB0  EFDC  F00D         	goto	l3569
  3383   001BB4                     u2480:
  3384   001BB4                     
  3385                           ;ECU_LAYER/KEYPAD/ecu_keypad.c: 43:     }
  3386   001BB4  EF33  F00E         	goto	l184
  3387   001BB8                     l3569:
  3388                           
  3389                           ;ECU_LAYER/KEYPAD/ecu_keypad.c: 46:      for(rows_counter=0;rows_counter<4;rows_counter+
      +                          +){
  3390   001BB8  0E00               	movlw	0
  3391   001BBA  6E10               	movwf	keypad_get_value@rows_counter^0,c
  3392   001BBC                     l3575:
  3393                           
  3394                           ;ECU_LAYER/KEYPAD/ecu_keypad.c: 47:          for(rows_counter2=0;rows_counter2<4;rows_co
      +                          unter2++){
  3395   001BBC  0E00               	movlw	0
  3396   001BBE  6E0F               	movwf	keypad_get_value@rows_counter2^0,c
  3397   001BC0                     l3581:
  3398   001BC0  500B               	movf	keypad_get_value@keypad_obj^0,w,c
  3399   001BC2  240F               	addwf	keypad_get_value@rows_counter2^0,w,c
  3400   001BC4  6E03               	movwf	gpio_pin_Write_logic@_pin_config^0,c
  3401   001BC6  0E00               	movlw	0
  3402   001BC8  6E04               	movwf	gpio_pin_Write_logic@logic^0,c
  3403   001BCA  EC4B  F00C         	call	_gpio_pin_Write_logic	;wreg free
  3404   001BCE                     
  3405                           ;ECU_LAYER/KEYPAD/ecu_keypad.c: 49:         }
  3406   001BCE  2A0F               	incf	keypad_get_value@rows_counter2^0,f,c
  3407   001BD0  0E03               	movlw	3
  3408   001BD2  640F               	cpfsgt	keypad_get_value@rows_counter2^0,c
  3409   001BD4  EFEE  F00D         	goto	u2491
  3410   001BD8  EFF0  F00D         	goto	u2490
  3411   001BDC                     u2491:
  3412   001BDC  EFE0  F00D         	goto	l3581
  3413   001BE0                     u2490:
  3414   001BE0  500B               	movf	keypad_get_value@keypad_obj^0,w,c
  3415   001BE2  2410               	addwf	keypad_get_value@rows_counter^0,w,c
  3416   001BE4  6E03               	movwf	gpio_pin_Write_logic@_pin_config^0,c
  3417   001BE6  0E01               	movlw	1
  3418   001BE8  6E04               	movwf	gpio_pin_Write_logic@logic^0,c
  3419   001BEA  EC4B  F00C         	call	_gpio_pin_Write_logic	;wreg free
  3420   001BEE                     
  3421                           ;ECU_LAYER/KEYPAD/ecu_keypad.c: 51:          for(columns_counter=0;columns_counter<4;col
      +                          umns_counter++){
  3422   001BEE  0E00               	movlw	0
  3423   001BF0  6E11               	movwf	keypad_get_value@columns_counter^0,c
  3424   001BF2                     l3595:
  3425   001BF2  500B               	movf	keypad_get_value@keypad_obj^0,w,c
  3426   001BF4  2411               	addwf	keypad_get_value@columns_counter^0,w,c
  3427   001BF6  0F04               	addlw	4
  3428   001BF8  6E03               	movwf	gpio_pin_Read_logic@_pin_config^0,c
  3429   001BFA  0E0E               	movlw	low keypad_get_value@col_val
  3430   001BFC  6E04               	movwf	gpio_pin_Read_logic@logic^0,c
  3431   001BFE  EC4E  F00D         	call	_gpio_pin_Read_logic	;wreg free
  3432   001C02                     
  3433                           ;ECU_LAYER/KEYPAD/ecu_keypad.c: 53:              if (HIGH == col_val){
  3434   001C02  040E               	decf	keypad_get_value@col_val^0,w,c
  3435   001C04  A4D8               	btfss	status,2,c
  3436   001C06  EF07  F00E         	goto	u2501
  3437   001C0A  EF09  F00E         	goto	u2500
  3438   001C0E                     u2501:
  3439   001C0E  EF1C  F00E         	goto	l3605
  3440   001C12                     u2500:
  3441   001C12                     
  3442                           ;ECU_LAYER/KEYPAD/ecu_keypad.c: 54:                  *value= keypad_value[rows_counter][
      +                          columns_counter];
  3443   001C12  5010               	movf	keypad_get_value@rows_counter^0,w,c
  3444   001C14  0D04               	mullw	4
  3445   001C16  50F3               	movf	243,w,c
  3446   001C18  0F01               	addlw	low _keypad_value@ecu_keypad$F379
  3447   001C1A  2411               	addwf	keypad_get_value@columns_counter^0,w,c
  3448   001C1C  6E0D               	movwf	??_keypad_get_value^0,c
  3449   001C1E  C00D  FFF6         	movff	??_keypad_get_value,tblptrl
  3450   001C22                     	if	1	;There is more than 1 active tblptr byte
  3451   001C22  0E10               	movlw	high __smallconst
  3452   001C24  6EF7               	movwf	tblptrh,c
  3453   001C26                     	endif
  3454   001C26                     	if	1	;Program memory is < 0x10000, tblptru is always zero
  3455   001C26  6AF8               	clrf	tblptru,c
  3456   001C28                     	endif
  3457   001C28                     	if	0	;tblptru may be non-zero
  3458   001C28                     	endif
  3459   001C28  500C               	movf	keypad_get_value@value^0,w,c
  3460   001C2A  6ED9               	movwf	fsr2l,c
  3461   001C2C  6ADA               	clrf	fsr2h,c
  3462   001C2E  0008               	tblrd		*
  3463   001C30  CFF5 FFDF          	movff	tablat,indf2
  3464   001C34  EF33  F00E         	goto	l184
  3465   001C38                     l3605:
  3466                           
  3467                           ;ECU_LAYER/KEYPAD/ecu_keypad.c: 58:                  *value=int_value;
  3468   001C38  500C               	movf	keypad_get_value@value^0,w,c
  3469   001C3A  6ED9               	movwf	fsr2l,c
  3470   001C3C  6ADA               	clrf	fsr2h,c
  3471   001C3E  0EFF               	movlw	255
  3472   001C40  6EDF               	movwf	indf2,c
  3473   001C42                     
  3474                           ;ECU_LAYER/KEYPAD/ecu_keypad.c: 61:         }
  3475   001C42  2A11               	incf	keypad_get_value@columns_counter^0,f,c
  3476   001C44  0E03               	movlw	3
  3477   001C46  6411               	cpfsgt	keypad_get_value@columns_counter^0,c
  3478   001C48  EF28  F00E         	goto	u2511
  3479   001C4C  EF2A  F00E         	goto	u2510
  3480   001C50                     u2511:
  3481   001C50  EFF9  F00D         	goto	l3595
  3482   001C54                     u2510:
  3483   001C54                     
  3484                           ;ECU_LAYER/KEYPAD/ecu_keypad.c: 62:      }
  3485   001C54  2A10               	incf	keypad_get_value@rows_counter^0,f,c
  3486   001C56  0E03               	movlw	3
  3487   001C58  6410               	cpfsgt	keypad_get_value@rows_counter^0,c
  3488   001C5A  EF31  F00E         	goto	u2521
  3489   001C5E  EF33  F00E         	goto	u2520
  3490   001C62                     u2521:
  3491   001C62  EFDE  F00D         	goto	l3575
  3492   001C66                     u2520:
  3493   001C66                     l184:
  3494   001C66  0012               	return		;funcret
  3495   001C68                     __end_of_keypad_get_value:
  3496                           	callstack 0
  3497                           
  3498 ;; *************** function _gpio_pin_Write_logic *****************
  3499 ;; Defined at:
  3500 ;;		line 32 in file "MCAL_LAYER/GPIO/hal_gpio.c"
  3501 ;; Parameters:    Size  Location     Type
  3502 ;;  _pin_config     1    2[COMRAM] PTR const struct .
  3503 ;;		 -> clock$segment_pins(4), clock(5), keypad$rows_pins(4), keypad(8), 
  3504 ;;		 -> lcd$lcd_data(4), lcd(6), 
  3505 ;;  logic           1    3[COMRAM] enum E2980
  3506 ;; Auto vars:     Size  Location     Type
  3507 ;;  ret             1    9[COMRAM] unsigned char 
  3508 ;; Return value:  Size  Location     Type
  3509 ;;                  1    wreg      unsigned char 
  3510 ;; Registers used:
  3511 ;;		wreg, fsr2l, fsr2h, status,2, status,0, prodl, prodh
  3512 ;; Tracked objects:
  3513 ;;		On entry : 0/0
  3514 ;;		On exit  : 0/0
  3515 ;;		Unchanged: 0/0
  3516 ;; Data sizes:     COMRAM   BANK0   BANK1   BANK2   BANK3   BANK4   BANK5   BANK6   BANK7   BANK8   BANK9  BANK10  BANK1
      +1  BANK12  BANK13  BANK14  BANK15
  3517 ;;      Params:         2       0       0       0       0       0       0       0       0       0       0       0       
      +0       0       0       0       0
  3518 ;;      Locals:         1       0       0       0       0       0       0       0       0       0       0       0       
      +0       0       0       0       0
  3519 ;;      Temps:          5       0       0       0       0       0       0       0       0       0       0       0       
      +0       0       0       0       0
  3520 ;;      Totals:         8       0       0       0       0       0       0       0       0       0       0       0       
      +0       0       0       0       0
  3521 ;;Total ram usage:        8 bytes
  3522 ;; Hardware stack levels used: 1
  3523 ;; Hardware stack levels required when called: 3
  3524 ;; This function calls:
  3525 ;;		Nothing
  3526 ;; This function is called by:
  3527 ;;		_keypad_get_value
  3528 ;;		_lcd_4bit_send_command
  3529 ;;		_lcd_4bit_send_data
  3530 ;;		_send_4bit
  3531 ;;		_send_4bit_enable_signal
  3532 ;;		_segment_write_number
  3533 ;;		_gpio_pin_intialize
  3534 ;;		_lcd_8bit_send_command
  3535 ;;		_lcd_8bit_send_data
  3536 ;;		_send_8bit_enable_signal
  3537 ;; This function uses a non-reentrant model
  3538 ;;
  3539                           
  3540                           	psect	text21
  3541   001896                     __ptext21:
  3542                           	callstack 0
  3543   001896                     _gpio_pin_Write_logic:
  3544                           	callstack 25
  3545   001896                     
  3546                           ;MCAL_LAYER/GPIO/hal_gpio.c: 34: Std_ReturnType ret = (Std_ReturnType) 0x01;
  3547   001896  0E01               	movlw	1
  3548   001898  6E0A               	movwf	gpio_pin_Write_logic@ret^0,c
  3549                           
  3550                           ;MCAL_LAYER/GPIO/hal_gpio.c: 35:     if (((void*)0) == _pin_config || _pin_config->pin >
      +                           (8 -1)){
  3551   00189A  5003               	movf	gpio_pin_Write_logic@_pin_config^0,w,c
  3552   00189C  B4D8               	btfsc	status,2,c
  3553   00189E  EF53  F00C         	goto	u1861
  3554   0018A2  EF55  F00C         	goto	u1860
  3555   0018A6                     u1861:
  3556   0018A6  EF65  F00C         	goto	l3179
  3557   0018AA                     u1860:
  3558   0018AA  5003               	movf	gpio_pin_Write_logic@_pin_config^0,w,c
  3559   0018AC  6ED9               	movwf	fsr2l,c
  3560   0018AE  6ADA               	clrf	fsr2h,c
  3561   0018B0  30DF               	rrcf	223,w,c
  3562   0018B2  32E8               	rrcf	wreg,f,c
  3563   0018B4  32E8               	rrcf	wreg,f,c
  3564   0018B6  0B07               	andlw	7
  3565   0018B8  6E05               	movwf	??_gpio_pin_Write_logic^0,c
  3566   0018BA  0E07               	movlw	7
  3567   0018BC  6405               	cpfsgt	??_gpio_pin_Write_logic^0,c
  3568   0018BE  EF63  F00C         	goto	u1871
  3569   0018C2  EF65  F00C         	goto	u1870
  3570   0018C6                     u1871:
  3571   0018C6  EFBC  F00C         	goto	l3187
  3572   0018CA                     u1870:
  3573   0018CA                     l3179:
  3574                           
  3575                           ;MCAL_LAYER/GPIO/hal_gpio.c: 36:         ret=(Std_ReturnType) 0x00;
  3576   0018CA  0E00               	movlw	0
  3577   0018CC  6E0A               	movwf	gpio_pin_Write_logic@ret^0,c
  3578                           
  3579                           ;MCAL_LAYER/GPIO/hal_gpio.c: 37:     }
  3580   0018CE  EFD1  F00C         	goto	l3189
  3581   0018D2                     l3181:
  3582                           
  3583                           ;MCAL_LAYER/GPIO/hal_gpio.c: 44:               (*lat_registers[_pin_config->port] &= ~((
      +                          uint_8)1<<_pin_config->pin));
  3584   0018D2  5003               	movf	gpio_pin_Write_logic@_pin_config^0,w,c
  3585   0018D4  6ED9               	movwf	fsr2l,c
  3586   0018D6  6ADA               	clrf	fsr2h,c
  3587   0018D8  30DF               	rrcf	223,w,c
  3588   0018DA  32E8               	rrcf	wreg,f,c
  3589   0018DC  32E8               	rrcf	wreg,f,c
  3590   0018DE  0B07               	andlw	7
  3591   0018E0  6E05               	movwf	??_gpio_pin_Write_logic^0,c
  3592   0018E2  0E01               	movlw	1
  3593   0018E4  6E06               	movwf	(??_gpio_pin_Write_logic+1)^0,c
  3594   0018E6  2A05               	incf	??_gpio_pin_Write_logic^0,f,c
  3595   0018E8  EF78  F00C         	goto	u1884
  3596   0018EC                     u1885:
  3597   0018EC  90D8               	bcf	status,0,c
  3598   0018EE  3606               	rlcf	(??_gpio_pin_Write_logic+1)^0,f,c
  3599   0018F0                     u1884:
  3600   0018F0  2E05               	decfsz	??_gpio_pin_Write_logic^0,f,c
  3601   0018F2  EF76  F00C         	goto	u1885
  3602   0018F6  5006               	movf	(??_gpio_pin_Write_logic+1)^0,w,c
  3603   0018F8  0AFF               	xorlw	255
  3604   0018FA  6E07               	movwf	(??_gpio_pin_Write_logic+2)^0,c
  3605   0018FC  5003               	movf	gpio_pin_Write_logic@_pin_config^0,w,c
  3606   0018FE  6ED9               	movwf	fsr2l,c
  3607   001900  6ADA               	clrf	fsr2h,c
  3608   001902  50DF               	movf	223,w,c
  3609   001904  0B07               	andlw	7
  3610   001906  0D02               	mullw	2
  3611   001908  50F3               	movf	243,w,c
  3612   00190A  0F8A               	addlw	low _lat_registers
  3613   00190C  6ED9               	movwf	fsr2l,c
  3614   00190E  6ADA               	clrf	fsr2h,c
  3615   001910  CFDE F008          	movff	postinc2,??_gpio_pin_Write_logic+3
  3616   001914  CFDD F009          	movff	postdec2,??_gpio_pin_Write_logic+4
  3617   001918  C008  FFD9         	movff	??_gpio_pin_Write_logic+3,fsr2l
  3618   00191C  C009  FFDA         	movff	??_gpio_pin_Write_logic+4,fsr2h
  3619   001920  5007               	movf	(??_gpio_pin_Write_logic+2)^0,w,c
  3620   001922  16DF               	andwf	indf2,f,c
  3621                           
  3622                           ;MCAL_LAYER/GPIO/hal_gpio.c: 46:               break;
  3623   001924  EFD1  F00C         	goto	l3189
  3624   001928                     l3183:
  3625                           
  3626                           ;MCAL_LAYER/GPIO/hal_gpio.c: 50:             (*lat_registers[_pin_config->port] |= ((uin
      +                          t_8)1<<_pin_config->pin));
  3627   001928  5003               	movf	gpio_pin_Write_logic@_pin_config^0,w,c
  3628   00192A  6ED9               	movwf	fsr2l,c
  3629   00192C  6ADA               	clrf	fsr2h,c
  3630   00192E  30DF               	rrcf	223,w,c
  3631   001930  32E8               	rrcf	wreg,f,c
  3632   001932  32E8               	rrcf	wreg,f,c
  3633   001934  0B07               	andlw	7
  3634   001936  6E05               	movwf	??_gpio_pin_Write_logic^0,c
  3635   001938  0E01               	movlw	1
  3636   00193A  6E06               	movwf	(??_gpio_pin_Write_logic+1)^0,c
  3637   00193C  2A05               	incf	??_gpio_pin_Write_logic^0,f,c
  3638   00193E  EFA3  F00C         	goto	u1894
  3639   001942                     u1895:
  3640   001942  90D8               	bcf	status,0,c
  3641   001944  3606               	rlcf	(??_gpio_pin_Write_logic+1)^0,f,c
  3642   001946                     u1894:
  3643   001946  2E05               	decfsz	??_gpio_pin_Write_logic^0,f,c
  3644   001948  EFA1  F00C         	goto	u1895
  3645   00194C  5003               	movf	gpio_pin_Write_logic@_pin_config^0,w,c
  3646   00194E  6ED9               	movwf	fsr2l,c
  3647   001950  6ADA               	clrf	fsr2h,c
  3648   001952  50DF               	movf	223,w,c
  3649   001954  0B07               	andlw	7
  3650   001956  0D02               	mullw	2
  3651   001958  50F3               	movf	243,w,c
  3652   00195A  0F8A               	addlw	low _lat_registers
  3653   00195C  6ED9               	movwf	fsr2l,c
  3654   00195E  6ADA               	clrf	fsr2h,c
  3655   001960  CFDE F007          	movff	postinc2,??_gpio_pin_Write_logic+2
  3656   001964  CFDD F008          	movff	postdec2,??_gpio_pin_Write_logic+3
  3657   001968  C007  FFD9         	movff	??_gpio_pin_Write_logic+2,fsr2l
  3658   00196C  C008  FFDA         	movff	??_gpio_pin_Write_logic+3,fsr2h
  3659   001970  5006               	movf	(??_gpio_pin_Write_logic+1)^0,w,c
  3660   001972  12DF               	iorwf	indf2,f,c
  3661                           
  3662                           ;MCAL_LAYER/GPIO/hal_gpio.c: 52:               break;
  3663   001974  EFD1  F00C         	goto	l3189
  3664   001978                     l3187:
  3665   001978  5004               	movf	gpio_pin_Write_logic@logic^0,w,c
  3666   00197A  6E05               	movwf	??_gpio_pin_Write_logic^0,c
  3667   00197C  6A06               	clrf	(??_gpio_pin_Write_logic+1)^0,c
  3668                           
  3669                           ; Switch on 2 bytes has been partitioned into a top level switch of size 1, and 1 sub-sw
      +                          itches
  3670                           ; Switch size 1, requested type "simple"
  3671                           ; Number of cases is 1, Range of values is 0 to 0
  3672                           ; switch strategies available:
  3673                           ; Name         Instructions Cycles
  3674                           ; simple_byte            4     3 (average)
  3675                           ;	Chosen strategy is simple_byte
  3676   00197E  5006               	movf	(??_gpio_pin_Write_logic+1)^0,w,c
  3677   001980  0A00               	xorlw	0	; case 0
  3678   001982  B4D8               	btfsc	status,2,c
  3679   001984  EFC6  F00C         	goto	l4207
  3680   001988  EF65  F00C         	goto	l3179
  3681   00198C                     l4207:
  3682                           
  3683                           ; Switch size 1, requested type "simple"
  3684                           ; Number of cases is 2, Range of values is 0 to 1
  3685                           ; switch strategies available:
  3686                           ; Name         Instructions Cycles
  3687                           ; simple_byte            7     4 (average)
  3688                           ;	Chosen strategy is simple_byte
  3689   00198C  5005               	movf	??_gpio_pin_Write_logic^0,w,c
  3690   00198E  0A00               	xorlw	0	; case 0
  3691   001990  B4D8               	btfsc	status,2,c
  3692   001992  EF69  F00C         	goto	l3181
  3693   001996  0A01               	xorlw	1	; case 1
  3694   001998  B4D8               	btfsc	status,2,c
  3695   00199A  EF94  F00C         	goto	l3183
  3696   00199E  EF65  F00C         	goto	l3179
  3697   0019A2                     l3189:
  3698                           
  3699                           ;MCAL_LAYER/GPIO/hal_gpio.c: 58: return ret;
  3700   0019A2  500A               	movf	gpio_pin_Write_logic@ret^0,w,c
  3701   0019A4  0012               	return		;funcret
  3702   0019A6                     __end_of_gpio_pin_Write_logic:
  3703                           	callstack 0
  3704                           
  3705 ;; *************** function _gpio_pin_Read_logic *****************
  3706 ;; Defined at:
  3707 ;;		line 16 in file "MCAL_LAYER/GPIO/hal_gpio.c"
  3708 ;; Parameters:    Size  Location     Type
  3709 ;;  _pin_config     1    2[COMRAM] PTR const struct .
  3710 ;;		 -> keypad$columns_pins(4), keypad(8), 
  3711 ;;  logic           1    3[COMRAM] PTR enum E2980
  3712 ;;		 -> keypad_get_value@col_val(1), 
  3713 ;; Auto vars:     Size  Location     Type
  3714 ;;  ret             1    8[COMRAM] unsigned char 
  3715 ;; Return value:  Size  Location     Type
  3716 ;;                  1    wreg      unsigned char 
  3717 ;; Registers used:
  3718 ;;		wreg, fsr1l, fsr1h, fsr2l, fsr2h, status,2, status,0, prodl, prodh
  3719 ;; Tracked objects:
  3720 ;;		On entry : 0/0
  3721 ;;		On exit  : 0/0
  3722 ;;		Unchanged: 0/0
  3723 ;; Data sizes:     COMRAM   BANK0   BANK1   BANK2   BANK3   BANK4   BANK5   BANK6   BANK7   BANK8   BANK9  BANK10  BANK1
      +1  BANK12  BANK13  BANK14  BANK15
  3724 ;;      Params:         2       0       0       0       0       0       0       0       0       0       0       0       
      +0       0       0       0       0
  3725 ;;      Locals:         1       0       0       0       0       0       0       0       0       0       0       0       
      +0       0       0       0       0
  3726 ;;      Temps:          4       0       0       0       0       0       0       0       0       0       0       0       
      +0       0       0       0       0
  3727 ;;      Totals:         7       0       0       0       0       0       0       0       0       0       0       0       
      +0       0       0       0       0
  3728 ;;Total ram usage:        7 bytes
  3729 ;; Hardware stack levels used: 1
  3730 ;; Hardware stack levels required when called: 3
  3731 ;; This function calls:
  3732 ;;		Nothing
  3733 ;; This function is called by:
  3734 ;;		_keypad_get_value
  3735 ;; This function uses a non-reentrant model
  3736 ;;
  3737                           
  3738                           	psect	text22
  3739   001A9C                     __ptext22:
  3740                           	callstack 0
  3741   001A9C                     _gpio_pin_Read_logic:
  3742                           	callstack 25
  3743   001A9C                     
  3744                           ;MCAL_LAYER/GPIO/hal_gpio.c: 18:     Std_ReturnType ret = (Std_ReturnType) 0x01;
  3745   001A9C  0E01               	movlw	1
  3746   001A9E  6E09               	movwf	gpio_pin_Read_logic@ret^0,c
  3747                           
  3748                           ;MCAL_LAYER/GPIO/hal_gpio.c: 19:     if (((void*)0) == _pin_config || _pin_config->pin >
      +                           (8 -1)){
  3749   001AA0  5003               	movf	gpio_pin_Read_logic@_pin_config^0,w,c
  3750   001AA2  B4D8               	btfsc	status,2,c
  3751   001AA4  EF56  F00D         	goto	u2281
  3752   001AA8  EF58  F00D         	goto	u2280
  3753   001AAC                     u2281:
  3754   001AAC  EF68  F00D         	goto	l3423
  3755   001AB0                     u2280:
  3756   001AB0  5003               	movf	gpio_pin_Read_logic@_pin_config^0,w,c
  3757   001AB2  6ED9               	movwf	fsr2l,c
  3758   001AB4  6ADA               	clrf	fsr2h,c
  3759   001AB6  30DF               	rrcf	223,w,c
  3760   001AB8  32E8               	rrcf	wreg,f,c
  3761   001ABA  32E8               	rrcf	wreg,f,c
  3762   001ABC  0B07               	andlw	7
  3763   001ABE  6E05               	movwf	??_gpio_pin_Read_logic^0,c
  3764   001AC0  0E07               	movlw	7
  3765   001AC2  6405               	cpfsgt	??_gpio_pin_Read_logic^0,c
  3766   001AC4  EF66  F00D         	goto	u2291
  3767   001AC8  EF68  F00D         	goto	u2290
  3768   001ACC                     u2291:
  3769   001ACC  EF6C  F00D         	goto	l3425
  3770   001AD0                     u2290:
  3771   001AD0                     l3423:
  3772                           
  3773                           ;MCAL_LAYER/GPIO/hal_gpio.c: 20:         ret=(Std_ReturnType) 0x00;
  3774   001AD0  0E00               	movlw	0
  3775   001AD2  6E09               	movwf	gpio_pin_Read_logic@ret^0,c
  3776                           
  3777                           ;MCAL_LAYER/GPIO/hal_gpio.c: 21:     }
  3778   001AD4  EFC0  F00D         	goto	l3427
  3779   001AD8                     l3425:
  3780                           
  3781                           ;MCAL_LAYER/GPIO/hal_gpio.c: 23:         *logic=((*port_registers[_pin_config->port] >> 
      +                          _pin_config->pin)&(uint_8)1);
  3782   001AD8  5004               	movf	gpio_pin_Read_logic@logic^0,w,c
  3783   001ADA  6ED9               	movwf	fsr2l,c
  3784   001ADC  6ADA               	clrf	fsr2h,c
  3785   001ADE  5003               	movf	gpio_pin_Read_logic@_pin_config^0,w,c
  3786   001AE0  6EE1               	movwf	fsr1l,c
  3787   001AE2  6AE2               	clrf	fsr1h,c
  3788   001AE4  30E7               	rrcf	231,w,c
  3789   001AE6  32E8               	rrcf	wreg,f,c
  3790   001AE8  32E8               	rrcf	wreg,f,c
  3791   001AEA  0B07               	andlw	7
  3792   001AEC  6E05               	movwf	??_gpio_pin_Read_logic^0,c
  3793   001AEE  5003               	movf	gpio_pin_Read_logic@_pin_config^0,w,c
  3794   001AF0  6EE1               	movwf	fsr1l,c
  3795   001AF2  6AE2               	clrf	fsr1h,c
  3796   001AF4  50E7               	movf	231,w,c
  3797   001AF6  0B07               	andlw	7
  3798   001AF8  0D02               	mullw	2
  3799   001AFA  50F3               	movf	243,w,c
  3800   001AFC  0F80               	addlw	low _port_registers
  3801   001AFE  6EE1               	movwf	fsr1l,c
  3802   001B00  6AE2               	clrf	fsr1h,c
  3803   001B02  CFE6 F006          	movff	postinc1,??_gpio_pin_Read_logic+1
  3804   001B06  CFE5 F007          	movff	postdec1,??_gpio_pin_Read_logic+2
  3805   001B0A  C006  FFE1         	movff	??_gpio_pin_Read_logic+1,fsr1l
  3806   001B0E  C007  FFE2         	movff	??_gpio_pin_Read_logic+2,fsr1h
  3807   001B12  50E7               	movf	indf1,w,c
  3808   001B14  6E08               	movwf	(??_gpio_pin_Read_logic+3)^0,c
  3809   001B16  2A05               	incf	??_gpio_pin_Read_logic^0,f,c
  3810   001B18  EF90  F00D         	goto	u2304
  3811   001B1C                     u2305:
  3812   001B1C  90D8               	bcf	status,0,c
  3813   001B1E  3208               	rrcf	(??_gpio_pin_Read_logic+3)^0,f,c
  3814   001B20                     u2304:
  3815   001B20  2E05               	decfsz	??_gpio_pin_Read_logic^0,f,c
  3816   001B22  EF8E  F00D         	goto	u2305
  3817   001B26  5008               	movf	(??_gpio_pin_Read_logic+3)^0,w,c
  3818   001B28  0B01               	andlw	1
  3819   001B2A  6EDF               	movwf	indf2,c
  3820                           
  3821                           ;MCAL_LAYER/GPIO/hal_gpio.c: 24:         *logic=((*port_registers[_pin_config->port] >> 
      +                          _pin_config->pin)&(uint_8)1);
  3822   001B2C  5004               	movf	gpio_pin_Read_logic@logic^0,w,c
  3823   001B2E  6ED9               	movwf	fsr2l,c
  3824   001B30  6ADA               	clrf	fsr2h,c
  3825   001B32  5003               	movf	gpio_pin_Read_logic@_pin_config^0,w,c
  3826   001B34  6EE1               	movwf	fsr1l,c
  3827   001B36  6AE2               	clrf	fsr1h,c
  3828   001B38  30E7               	rrcf	231,w,c
  3829   001B3A  32E8               	rrcf	wreg,f,c
  3830   001B3C  32E8               	rrcf	wreg,f,c
  3831   001B3E  0B07               	andlw	7
  3832   001B40  6E05               	movwf	??_gpio_pin_Read_logic^0,c
  3833   001B42  5003               	movf	gpio_pin_Read_logic@_pin_config^0,w,c
  3834   001B44  6EE1               	movwf	fsr1l,c
  3835   001B46  6AE2               	clrf	fsr1h,c
  3836   001B48  50E7               	movf	231,w,c
  3837   001B4A  0B07               	andlw	7
  3838   001B4C  0D02               	mullw	2
  3839   001B4E  50F3               	movf	243,w,c
  3840   001B50  0F80               	addlw	low _port_registers
  3841   001B52  6EE1               	movwf	fsr1l,c
  3842   001B54  6AE2               	clrf	fsr1h,c
  3843   001B56  CFE6 F006          	movff	postinc1,??_gpio_pin_Read_logic+1
  3844   001B5A  CFE5 F007          	movff	postdec1,??_gpio_pin_Read_logic+2
  3845   001B5E  C006  FFE1         	movff	??_gpio_pin_Read_logic+1,fsr1l
  3846   001B62  C007  FFE2         	movff	??_gpio_pin_Read_logic+2,fsr1h
  3847   001B66  50E7               	movf	indf1,w,c
  3848   001B68  6E08               	movwf	(??_gpio_pin_Read_logic+3)^0,c
  3849   001B6A  2A05               	incf	??_gpio_pin_Read_logic^0,f,c
  3850   001B6C  EFBA  F00D         	goto	u2314
  3851   001B70                     u2315:
  3852   001B70  90D8               	bcf	status,0,c
  3853   001B72  3208               	rrcf	(??_gpio_pin_Read_logic+3)^0,f,c
  3854   001B74                     u2314:
  3855   001B74  2E05               	decfsz	??_gpio_pin_Read_logic^0,f,c
  3856   001B76  EFB8  F00D         	goto	u2315
  3857   001B7A  5008               	movf	(??_gpio_pin_Read_logic+3)^0,w,c
  3858   001B7C  0B01               	andlw	1
  3859   001B7E  6EDF               	movwf	indf2,c
  3860   001B80                     l3427:
  3861                           
  3862                           ;MCAL_LAYER/GPIO/hal_gpio.c: 27:     return ret;
  3863   001B80  5009               	movf	gpio_pin_Read_logic@ret^0,w,c
  3864   001B82  0012               	return		;funcret
  3865   001B84                     __end_of_gpio_pin_Read_logic:
  3866                           	callstack 0
  3867                           
  3868 ;; *************** function _convert_byte_to_string *****************
  3869 ;; Defined at:
  3870 ;;		line 337 in file "ECU_LAYER/LCD/ecu_lcd.c"
  3871 ;; Parameters:    Size  Location     Type
  3872 ;;  value           1    wreg     unsigned char 
  3873 ;;  str             1   44[COMRAM] PTR unsigned char 
  3874 ;;		 -> Set_Time@display_value(4), 
  3875 ;; Auto vars:     Size  Location     Type
  3876 ;;  value           1   45[COMRAM] unsigned char 
  3877 ;;  ret             1    0        unsigned char 
  3878 ;; Return value:  Size  Location     Type
  3879 ;;                  1    wreg      void 
  3880 ;; Registers used:
  3881 ;;		wreg, fsr1l, fsr1h, fsr2l, fsr2h, status,2, status,0, tblptrl, tblptrh, tblptru, cstack
  3882 ;; Tracked objects:
  3883 ;;		On entry : 0/0
  3884 ;;		On exit  : 0/0
  3885 ;;		Unchanged: 0/0
  3886 ;; Data sizes:     COMRAM   BANK0   BANK1   BANK2   BANK3   BANK4   BANK5   BANK6   BANK7   BANK8   BANK9  BANK10  BANK1
      +1  BANK12  BANK13  BANK14  BANK15
  3887 ;;      Params:         1       0       0       0       0       0       0       0       0       0       0       0       
      +0       0       0       0       0
  3888 ;;      Locals:         1       0       0       0       0       0       0       0       0       0       0       0       
      +0       0       0       0       0
  3889 ;;      Temps:          0       0       0       0       0       0       0       0       0       0       0       0       
      +0       0       0       0       0
  3890 ;;      Totals:         2       0       0       0       0       0       0       0       0       0       0       0       
      +0       0       0       0       0
  3891 ;;Total ram usage:        2 bytes
  3892 ;; Hardware stack levels used: 1
  3893 ;; Hardware stack levels required when called: 8
  3894 ;; This function calls:
  3895 ;;		_memset
  3896 ;;		_sprintf
  3897 ;; This function is called by:
  3898 ;;		_Set_Time
  3899 ;; This function uses a non-reentrant model
  3900 ;;
  3901                           
  3902                           	psect	text23
  3903   002460                     __ptext23:
  3904                           	callstack 0
  3905   002460                     _convert_byte_to_string:
  3906                           	callstack 20
  3907                           
  3908                           ;incstack = 0
  3909                           ;convert_byte_to_string@value stored from wreg
  3910   002460  6E2E               	movwf	convert_byte_to_string@value^0,c
  3911   002462                     
  3912                           ;ECU_LAYER/LCD/ecu_lcd.c: 341:     if (((void*)0) == str ){
  3913   002462  502D               	movf	convert_byte_to_string@str^0,w,c
  3914   002464  A4D8               	btfss	status,2,c
  3915   002466  EF37  F012         	goto	u2541
  3916   00246A  EF39  F012         	goto	u2540
  3917   00246E                     u2541:
  3918   00246E  EF3B  F012         	goto	l3625
  3919   002472                     u2540:
  3920   002472                     
  3921                           ;ECU_LAYER/LCD/ecu_lcd.c: 343:     }
  3922   002472  EF50  F012         	goto	l304
  3923   002476                     l3625:
  3924                           
  3925                           ;ECU_LAYER/LCD/ecu_lcd.c: 345:         memset(str,'\0',4);
  3926   002476  C02D  F003         	movff	convert_byte_to_string@str,memset@dest
  3927   00247A  0E00               	movlw	0
  3928   00247C  6E05               	movwf	(memset@c+1)^0,c
  3929   00247E  0E00               	movlw	0
  3930   002480  6E04               	movwf	memset@c^0,c
  3931   002482  0E00               	movlw	0
  3932   002484  6E07               	movwf	(memset@n+1)^0,c
  3933   002486  0E04               	movlw	4
  3934   002488  6E06               	movwf	memset@n^0,c
  3935   00248A  ECF7  F012         	call	_memset	;wreg free
  3936   00248E                     
  3937                           ;ECU_LAYER/LCD/ecu_lcd.c: 346:         sprintf(str,"%i",value);
  3938   00248E  C02D  F01C         	movff	convert_byte_to_string@str,sprintf@s
  3939   002492  0E53               	movlw	low STR_7
  3940   002494  6E1D               	movwf	sprintf@fmt^0,c
  3941   002496  C02E  F01E         	movff	convert_byte_to_string@value,?_sprintf+2
  3942   00249A  6A1F               	clrf	(?_sprintf+3)^0,c
  3943   00249C  ECC3  F012         	call	_sprintf	;wreg free
  3944   0024A0                     l304:
  3945   0024A0  0012               	return		;funcret
  3946   0024A2                     __end_of_convert_byte_to_string:
  3947                           	callstack 0
  3948                           
  3949 ;; *************** function _sprintf *****************
  3950 ;; Defined at:
  3951 ;;		line 9 in file "D:\Program Files\Microchip\xc8\v2.45\pic\sources\c99\common\nf_sprintf.c"
  3952 ;; Parameters:    Size  Location     Type
  3953 ;;  s               1   27[COMRAM] PTR unsigned char 
  3954 ;;		 -> Set_Time@display_value(4), 
  3955 ;;  fmt             1   28[COMRAM] PTR const unsigned char 
  3956 ;;		 -> STR_9(3), STR_8(3), STR_7(3), 
  3957 ;; Auto vars:     Size  Location     Type
  3958 ;;  f              12   32[COMRAM] struct _IO_FILE
  3959 ;;  ret             2    0        int 
  3960 ;;  ap              1   31[COMRAM] PTR void [1]
  3961 ;;		 -> ?_sprintf(2), 
  3962 ;; Return value:  Size  Location     Type
  3963 ;;                  2   27[COMRAM] int 
  3964 ;; Registers used:
  3965 ;;		wreg, fsr1l, fsr1h, fsr2l, fsr2h, status,2, status,0, tblptrl, tblptrh, tblptru, cstack
  3966 ;; Tracked objects:
  3967 ;;		On entry : 0/0
  3968 ;;		On exit  : 0/0
  3969 ;;		Unchanged: 0/0
  3970 ;; Data sizes:     COMRAM   BANK0   BANK1   BANK2   BANK3   BANK4   BANK5   BANK6   BANK7   BANK8   BANK9  BANK10  BANK1
      +1  BANK12  BANK13  BANK14  BANK15
  3971 ;;      Params:         4       0       0       0       0       0       0       0       0       0       0       0       
      +0       0       0       0       0
  3972 ;;      Locals:        13       0       0       0       0       0       0       0       0       0       0       0       
      +0       0       0       0       0
  3973 ;;      Temps:          0       0       0       0       0       0       0       0       0       0       0       0       
      +0       0       0       0       0
  3974 ;;      Totals:        17       0       0       0       0       0       0       0       0       0       0       0       
      +0       0       0       0       0
  3975 ;;Total ram usage:       17 bytes
  3976 ;; Hardware stack levels used: 1
  3977 ;; Hardware stack levels required when called: 7
  3978 ;; This function calls:
  3979 ;;		_vfprintf
  3980 ;; This function is called by:
  3981 ;;		_convert_byte_to_string
  3982 ;;		_convert_short_to_string
  3983 ;;		_convert_int_to_string
  3984 ;; This function uses a non-reentrant model
  3985 ;;
  3986                           
  3987                           	psect	text24
  3988   002586                     __ptext24:
  3989                           	callstack 0
  3990   002586                     _sprintf:
  3991                           	callstack 20
  3992   002586  0E1E               	movlw	low (?_sprintf+2)
  3993   002588  6E20               	movwf	sprintf@ap^0,c
  3994   00258A  C01C  F021         	movff	sprintf@s,sprintf@f
  3995   00258E  0E00               	movlw	0
  3996   002590  6E25               	movwf	(sprintf@f+4)^0,c
  3997   002592  0E00               	movlw	0
  3998   002594  6E24               	movwf	(sprintf@f+3)^0,c
  3999   002596  0E00               	movlw	0
  4000   002598  6E2C               	movwf	(sprintf@f+11)^0,c
  4001   00259A  0E00               	movlw	0
  4002   00259C  6E2B               	movwf	(sprintf@f+10)^0,c
  4003   00259E  0E21               	movlw	low sprintf@f
  4004   0025A0  6E18               	movwf	vfprintf@fp^0,c
  4005   0025A2  C01D  F019         	movff	sprintf@fmt,vfprintf@fmt
  4006   0025A6  0E20               	movlw	low sprintf@ap
  4007   0025A8  6E1A               	movwf	vfprintf@ap^0,c
  4008   0025AA  EC51  F012         	call	_vfprintf	;wreg free
  4009   0025AE  501C               	movf	sprintf@s^0,w,c
  4010   0025B0  2424               	addwf	(sprintf@f+3)^0,w,c
  4011   0025B2  6ED9               	movwf	fsr2l,c
  4012   0025B4  6ADA               	clrf	fsr2h,c
  4013   0025B6  6ADF               	clrf	indf2,c
  4014   0025B8  0012               	return		;funcret
  4015   0025BA                     __end_of_sprintf:
  4016                           	callstack 0
  4017                           
  4018 ;; *************** function _vfprintf *****************
  4019 ;; Defined at:
  4020 ;;		line 1817 in file "D:\Program Files\Microchip\xc8\v2.45\pic\sources\c99\common\doprnt.c"
  4021 ;; Parameters:    Size  Location     Type
  4022 ;;  fp              1   23[COMRAM] PTR struct _IO_FILE
  4023 ;;		 -> sprintf@f(12), 
  4024 ;;  fmt             1   24[COMRAM] PTR const unsigned char 
  4025 ;;		 -> STR_9(3), STR_8(3), STR_7(3), 
  4026 ;;  ap              1   25[COMRAM] PTR PTR void 
  4027 ;;		 -> sprintf@ap(1), 
  4028 ;; Auto vars:     Size  Location     Type
  4029 ;;  cfmt            1   26[COMRAM] PTR unsigned char 
  4030 ;;		 -> STR_9(3), STR_8(3), STR_7(3), 
  4031 ;; Return value:  Size  Location     Type
  4032 ;;                  2   23[COMRAM] int 
  4033 ;; Registers used:
  4034 ;;		wreg, fsr1l, fsr1h, fsr2l, fsr2h, status,2, status,0, tblptrl, tblptrh, tblptru, cstack
  4035 ;; Tracked objects:
  4036 ;;		On entry : 0/0
  4037 ;;		On exit  : 0/0
  4038 ;;		Unchanged: 0/0
  4039 ;; Data sizes:     COMRAM   BANK0   BANK1   BANK2   BANK3   BANK4   BANK5   BANK6   BANK7   BANK8   BANK9  BANK10  BANK1
      +1  BANK12  BANK13  BANK14  BANK15
  4040 ;;      Params:         3       0       0       0       0       0       0       0       0       0       0       0       
      +0       0       0       0       0
  4041 ;;      Locals:         1       0       0       0       0       0       0       0       0       0       0       0       
      +0       0       0       0       0
  4042 ;;      Temps:          0       0       0       0       0       0       0       0       0       0       0       0       
      +0       0       0       0       0
  4043 ;;      Totals:         4       0       0       0       0       0       0       0       0       0       0       0       
      +0       0       0       0       0
  4044 ;;Total ram usage:        4 bytes
  4045 ;; Hardware stack levels used: 1
  4046 ;; Hardware stack levels required when called: 6
  4047 ;; This function calls:
  4048 ;;		_vfpfcnvrt
  4049 ;; This function is called by:
  4050 ;;		_sprintf
  4051 ;; This function uses a non-reentrant model
  4052 ;;
  4053                           
  4054                           	psect	text25
  4055   0024A2                     __ptext25:
  4056                           	callstack 0
  4057   0024A2                     _vfprintf:
  4058                           	callstack 20
  4059   0024A2                     
  4060                           ;D:\Program Files\Microchip\xc8\v2.45\pic\sources\c99\common\doprnt.c: 1817: int vfprint
      +                          f(FILE *fp, const char *fmt, va_list ap);D:\Program Files\Microchip\xc8\v2.45\pic\source
      +                          s\c99\common\doprnt.c: 1818: {;D:\Program Files\Microchip\xc8\v2.45\pic\sources\c99\comm
      +                          on\doprnt.c: 1820:     char *cfmt;;D:\Program Files\Microchip\xc8\v2.45\pic\sources\c99\
      +                          common\doprnt.c: 1822:     cfmt = (char *)fmt;
  4061   0024A2  C019  F01B         	movff	vfprintf@fmt,vfprintf@cfmt
  4062                           
  4063                           ;D:\Program Files\Microchip\xc8\v2.45\pic\sources\c99\common\doprnt.c: 1826:     while (
      +                          *cfmt) {
  4064   0024A6  EF5D  F012         	goto	l3373
  4065   0024AA                     l3371:
  4066                           
  4067                           ;D:\Program Files\Microchip\xc8\v2.45\pic\sources\c99\common\doprnt.c: 1830:    vfpfcnvr
      +                          t(fp, &cfmt, ap);
  4068   0024AA  C018  F00D         	movff	vfprintf@fp,vfpfcnvrt@fp
  4069   0024AE  0E1B               	movlw	low vfprintf@cfmt
  4070   0024B0  6E0E               	movwf	vfpfcnvrt@fmt^0,c
  4071   0024B2  C01A  F00F         	movff	vfprintf@ap,vfpfcnvrt@ap
  4072   0024B6  EC7F  F009         	call	_vfpfcnvrt	;wreg free
  4073   0024BA                     l3373:
  4074                           
  4075                           ;D:\Program Files\Microchip\xc8\v2.45\pic\sources\c99\common\doprnt.c: 1826:     while (
      +                          *cfmt) {
  4076   0024BA  C01B  FFF6         	movff	vfprintf@cfmt,tblptrl
  4077   0024BE                     	if	1	;There is more than 1 active tblptr byte
  4078   0024BE  0E10               	movlw	high __smallconst
  4079   0024C0  6EF7               	movwf	tblptrh,c
  4080   0024C2                     	endif
  4081   0024C2                     	if	1	;Program memory is < 0x10000, tblptru is always zero
  4082   0024C2  6AF8               	clrf	tblptru,c
  4083   0024C4                     	endif
  4084   0024C4                     	if	0	;tblptru may be non-zero
  4085   0024C4                     	endif
  4086   0024C4  0008               	tblrd		*
  4087   0024C6  50F5               	movf	tablat,w,c
  4088   0024C8  0900               	iorlw	0
  4089   0024CA  A4D8               	btfss	status,2,c
  4090   0024CC  EF6A  F012         	goto	u2191
  4091   0024D0  EF6C  F012         	goto	u2190
  4092   0024D4                     u2191:
  4093   0024D4  EF55  F012         	goto	l3371
  4094   0024D8                     u2190:
  4095   0024D8                     
  4096                           ;D:\Program Files\Microchip\xc8\v2.45\pic\sources\c99\common\doprnt.c: 1835:  return 0;
  4097   0024D8  0E00               	movlw	0
  4098   0024DA  6E19               	movwf	(?_vfprintf+1)^0,c
  4099   0024DC  0E00               	movlw	0
  4100   0024DE  6E18               	movwf	?_vfprintf^0,c
  4101   0024E0  0012               	return		;funcret
  4102   0024E2                     __end_of_vfprintf:
  4103                           	callstack 0
  4104                           
  4105 ;; *************** function _vfpfcnvrt *****************
  4106 ;; Defined at:
  4107 ;;		line 1177 in file "D:\Program Files\Microchip\xc8\v2.45\pic\sources\c99\common\doprnt.c"
  4108 ;; Parameters:    Size  Location     Type
  4109 ;;  fp              1   12[COMRAM] PTR struct _IO_FILE
  4110 ;;		 -> sprintf@f(12), 
  4111 ;;  fmt             1   13[COMRAM] PTR PTR unsigned char 
  4112 ;;		 -> vfprintf@cfmt(1), 
  4113 ;;  ap              1   14[COMRAM] PTR PTR void 
  4114 ;;		 -> sprintf@ap(1), 
  4115 ;; Auto vars:     Size  Location     Type
  4116 ;;  convarg         4   18[COMRAM] struct .
  4117 ;;  c               1   22[COMRAM] unsigned char 
  4118 ;;  cp              1   17[COMRAM] PTR unsigned char 
  4119 ;;		 -> STR_9(3), STR_8(3), STR_7(3), 
  4120 ;;  done            1   16[COMRAM] _Bool 
  4121 ;; Return value:  Size  Location     Type
  4122 ;;                  1    wreg      void 
  4123 ;; Registers used:
  4124 ;;		wreg, fsr1l, fsr1h, fsr2l, fsr2h, status,2, status,0, tblptrl, tblptrh, tblptru, cstack
  4125 ;; Tracked objects:
  4126 ;;		On entry : 0/0
  4127 ;;		On exit  : 0/0
  4128 ;;		Unchanged: 0/0
  4129 ;; Data sizes:     COMRAM   BANK0   BANK1   BANK2   BANK3   BANK4   BANK5   BANK6   BANK7   BANK8   BANK9  BANK10  BANK1
      +1  BANK12  BANK13  BANK14  BANK15
  4130 ;;      Params:         3       0       0       0       0       0       0       0       0       0       0       0       
      +0       0       0       0       0
  4131 ;;      Locals:         7       0       0       0       0       0       0       0       0       0       0       0       
      +0       0       0       0       0
  4132 ;;      Temps:          1       0       0       0       0       0       0       0       0       0       0       0       
      +0       0       0       0       0
  4133 ;;      Totals:        11       0       0       0       0       0       0       0       0       0       0       0       
      +0       0       0       0       0
  4134 ;;Total ram usage:       11 bytes
  4135 ;; Hardware stack levels used: 1
  4136 ;; Hardware stack levels required when called: 5
  4137 ;; This function calls:
  4138 ;;		___awdiv
  4139 ;;		___awmod
  4140 ;;		_abs
  4141 ;;		_fputc
  4142 ;; This function is called by:
  4143 ;;		_vfprintf
  4144 ;; This function uses a non-reentrant model
  4145 ;;
  4146                           
  4147                           	psect	text26
  4148   0012FE                     __ptext26:
  4149                           	callstack 0
  4150   0012FE                     _vfpfcnvrt:
  4151                           	callstack 20
  4152   0012FE                     
  4153                           ;D:\Program Files\Microchip\xc8\v2.45\pic\sources\c99\common\doprnt.c: 1177: vfpfcnvrt(F
      +                          ILE *fp, char *fmt[], va_list ap);D:\Program Files\Microchip\xc8\v2.45\pic\sources\c99\c
      +                          ommon\doprnt.c: 1178: {;D:\Program Files\Microchip\xc8\v2.45\pic\sources\c99\common\dopr
      +                          nt.c: 1179:     char c, *cp;;D:\Program Files\Microchip\xc8\v2.45\pic\sources\c99\common
      +                          \doprnt.c: 1180:     _Bool done;;D:\Program Files\Microchip\xc8\v2.45\pic\sources\c99\co
      +                          mmon\doprnt.c: 1188:  } convarg;;D:\Program Files\Microchip\xc8\v2.45\pic\sources\c99\co
      +                          mmon\doprnt.c: 1201:     if ((*fmt)[0] == '%') {
  4154   0012FE  500E               	movf	vfpfcnvrt@fmt^0,w,c
  4155   001300  6ED9               	movwf	fsr2l,c
  4156   001302  6ADA               	clrf	fsr2h,c
  4157   001304  CFDF FFF6          	movff	indf2,tblptrl
  4158   001308                     	if	1	;There is more than 1 active tblptr byte
  4159   001308  0E10               	movlw	high __smallconst
  4160   00130A  6EF7               	movwf	tblptrh,c
  4161   00130C                     	endif
  4162   00130C                     	if	1	;Program memory is < 0x10000, tblptru is always zero
  4163   00130C  6AF8               	clrf	tblptru,c
  4164   00130E                     	endif
  4165   00130E                     	if	0	;tblptru may be non-zero
  4166   00130E                     	endif
  4167   00130E  0008               	tblrd		*
  4168   001310  50F5               	movf	tablat,w,c
  4169   001312  0A25               	xorlw	37
  4170   001314  A4D8               	btfss	status,2,c
  4171   001316  EF8F  F009         	goto	u2071
  4172   00131A  EF91  F009         	goto	u2070
  4173   00131E                     u2071:
  4174   00131E  EF4C  F00A         	goto	l3347
  4175   001322                     u2070:
  4176   001322                     
  4177                           ;D:\Program Files\Microchip\xc8\v2.45\pic\sources\c99\common\doprnt.c: 1202:         ++*
      +                          fmt;
  4178   001322  500E               	movf	vfpfcnvrt@fmt^0,w,c
  4179   001324  6ED9               	movwf	fsr2l,c
  4180   001326  6ADA               	clrf	fsr2h,c
  4181   001328  2ADF               	incf	indf2,f,c
  4182   00132A                     
  4183                           ;D:\Program Files\Microchip\xc8\v2.45\pic\sources\c99\common\doprnt.c: 1204:         fla
      +                          gs = width = 0;
  4184   00132A  0E00               	movlw	0
  4185   00132C  6E37               	movwf	(_width+1)^0,c
  4186   00132E  0E00               	movlw	0
  4187   001330  6E36               	movwf	_width^0,c
  4188   001332  C036  F056         	movff	_width,_flags
  4189   001336                     
  4190                           ;D:\Program Files\Microchip\xc8\v2.45\pic\sources\c99\common\doprnt.c: 1205:         pre
      +                          c = -1;
  4191   001336  6838               	setf	_prec^0,c
  4192   001338  6839               	setf	(_prec+1)^0,c
  4193   00133A                     
  4194                           ;D:\Program Files\Microchip\xc8\v2.45\pic\sources\c99\common\doprnt.c: 1291:   cp = *fmt
      +                          ;
  4195   00133A  500E               	movf	vfpfcnvrt@fmt^0,w,c
  4196   00133C  6ED9               	movwf	fsr2l,c
  4197   00133E  6ADA               	clrf	fsr2h,c
  4198   001340  50DF               	movf	indf2,w,c
  4199   001342  6E12               	movwf	vfpfcnvrt@cp^0,c
  4200   001344                     
  4201                           ;D:\Program Files\Microchip\xc8\v2.45\pic\sources\c99\common\doprnt.c: 1361:   if (*cp =
      +                          = 'd' || *cp == 'i') {
  4202   001344  C012  FFF6         	movff	vfpfcnvrt@cp,tblptrl
  4203   001348                     	if	1	;There is more than 1 active tblptr byte
  4204   001348  0E10               	movlw	high __smallconst
  4205   00134A  6EF7               	movwf	tblptrh,c
  4206   00134C                     	endif
  4207   00134C                     	if	1	;Program memory is < 0x10000, tblptru is always zero
  4208   00134C  6AF8               	clrf	tblptru,c
  4209   00134E                     	endif
  4210   00134E                     	if	0	;tblptru may be non-zero
  4211   00134E                     	endif
  4212   00134E  0008               	tblrd		*
  4213   001350  50F5               	movf	tablat,w,c
  4214   001352  0A64               	xorlw	100
  4215   001354  B4D8               	btfsc	status,2,c
  4216   001356  EFAF  F009         	goto	u2081
  4217   00135A  EFB1  F009         	goto	u2080
  4218   00135E                     u2081:
  4219   00135E  EFC0  F009         	goto	l3317
  4220   001362                     u2080:
  4221   001362  C012  FFF6         	movff	vfpfcnvrt@cp,tblptrl
  4222   001366                     	if	1	;There is more than 1 active tblptr byte
  4223   001366  0E10               	movlw	high __smallconst
  4224   001368  6EF7               	movwf	tblptrh,c
  4225   00136A                     	endif
  4226   00136A                     	if	1	;Program memory is < 0x10000, tblptru is always zero
  4227   00136A  6AF8               	clrf	tblptru,c
  4228   00136C                     	endif
  4229   00136C                     	if	0	;tblptru may be non-zero
  4230   00136C                     	endif
  4231   00136C  0008               	tblrd		*
  4232   00136E  50F5               	movf	tablat,w,c
  4233   001370  0A69               	xorlw	105
  4234   001372  A4D8               	btfss	status,2,c
  4235   001374  EFBE  F009         	goto	u2091
  4236   001378  EFC0  F009         	goto	u2090
  4237   00137C                     u2091:
  4238   00137C  EF46  F00A         	goto	l3343
  4239   001380                     u2090:
  4240   001380                     l3317:
  4241                           
  4242                           ;D:\Program Files\Microchip\xc8\v2.45\pic\sources\c99\common\doprnt.c: 1404:    convarg.
      +                          sint = (vfpf_sint_t)(int)(*(int *)__va_arg(*(int **)ap, (int)0));
  4243   001380  500F               	movf	vfpfcnvrt@ap^0,w,c
  4244   001382  6ED9               	movwf	fsr2l,c
  4245   001384  6ADA               	clrf	fsr2h,c
  4246   001386  0E02               	movlw	2
  4247   001388  26DF               	addwf	indf2,f,c
  4248   00138A  5CDF               	subwf	indf2,w,c
  4249   00138C  6ED9               	movwf	fsr2l,c
  4250   00138E  6ADA               	clrf	fsr2h,c
  4251   001390  CFDE F013          	movff	postinc2,vfpfcnvrt@convarg
  4252   001394  CFDE F014          	movff	postinc2,vfpfcnvrt@convarg+1
  4253   001398                     
  4254                           ;D:\Program Files\Microchip\xc8\v2.45\pic\sources\c99\common\doprnt.c: 1406:    *fmt = c
      +                          p+1;
  4255   001398  500E               	movf	vfpfcnvrt@fmt^0,w,c
  4256   00139A  6ED9               	movwf	fsr2l,c
  4257   00139C  6ADA               	clrf	fsr2h,c
  4258   00139E  2812               	incf	vfpfcnvrt@cp^0,w,c
  4259   0013A0  6EDF               	movwf	indf2,c
  4260   0013A2                     
  4261                           ;D:\Program Files\Microchip\xc8\v2.45\pic\sources\c99\common\doprnt.c: 1408:    c = size
      +                          of(dbuf);
  4262   0013A2  0E20               	movlw	32
  4263   0013A4  6E17               	movwf	vfpfcnvrt@c^0,c
  4264                           
  4265                           ;D:\Program Files\Microchip\xc8\v2.45\pic\sources\c99\common\doprnt.c: 1409:    done = c
      +                          onvarg.sint < 0;
  4266   0013A6  BE14               	btfsc	(vfpfcnvrt@convarg+1)^0,7,c
  4267   0013A8  EFD8  F009         	goto	u2101
  4268   0013AC  EFDB  F009         	goto	u2100
  4269   0013B0                     u2101:
  4270   0013B0  0E01               	movlw	1
  4271   0013B2  EFDC  F009         	goto	u2110
  4272   0013B6                     u2100:
  4273   0013B6  0E00               	movlw	0
  4274   0013B8                     u2110:
  4275   0013B8  6E11               	movwf	vfpfcnvrt@done^0,c
  4276   0013BA                     l3323:
  4277                           
  4278                           ;D:\Program Files\Microchip\xc8\v2.45\pic\sources\c99\common\doprnt.c: 1411:     dbuf[--
      +                          c] = abs(convarg.sint % 10) + '0';
  4279   0013BA  0617               	decf	vfpfcnvrt@c^0,f,c
  4280   0013BC  5017               	movf	vfpfcnvrt@c^0,w,c
  4281   0013BE  0FA7               	addlw	low _dbuf
  4282   0013C0  6ED9               	movwf	fsr2l,c
  4283   0013C2  6ADA               	clrf	fsr2h,c
  4284   0013C4  C013  F003         	movff	vfpfcnvrt@convarg,___awmod@dividend
  4285   0013C8  C014  F004         	movff	vfpfcnvrt@convarg+1,___awmod@dividend+1
  4286   0013CC  0E00               	movlw	0
  4287   0013CE  6E06               	movwf	(___awmod@divisor+1)^0,c
  4288   0013D0  0E0A               	movlw	10
  4289   0013D2  6E05               	movwf	___awmod@divisor^0,c
  4290   0013D4  EC07  F00F         	call	___awmod	;wreg free
  4291   0013D8  C003  F009         	movff	?___awmod,abs@a
  4292   0013DC  C004  F00A         	movff	?___awmod+1,abs@a+1
  4293   0013E0  ECDD  F012         	call	_abs	;wreg free
  4294   0013E4  5009               	movf	?_abs^0,w,c
  4295   0013E6  0F30               	addlw	48
  4296   0013E8  6EDF               	movwf	indf2,c
  4297   0013EA                     
  4298                           ;D:\Program Files\Microchip\xc8\v2.45\pic\sources\c99\common\doprnt.c: 1412:     convarg
      +                          .sint /= 10;
  4299   0013EA  C013  F003         	movff	vfpfcnvrt@convarg,___awdiv@dividend
  4300   0013EE  C014  F004         	movff	vfpfcnvrt@convarg+1,___awdiv@dividend+1
  4301   0013F2  0E00               	movlw	0
  4302   0013F4  6E06               	movwf	(___awdiv@divisor+1)^0,c
  4303   0013F6  0E0A               	movlw	10
  4304   0013F8  6E05               	movwf	___awdiv@divisor^0,c
  4305   0013FA  ECA5  F00E         	call	___awdiv	;wreg free
  4306   0013FE  C003  F013         	movff	?___awdiv,vfpfcnvrt@convarg
  4307   001402  C004  F014         	movff	?___awdiv+1,vfpfcnvrt@convarg+1
  4308   001406                     
  4309                           ;D:\Program Files\Microchip\xc8\v2.45\pic\sources\c99\common\doprnt.c: 1416:    } while 
      +                          (convarg.sint != 0 && c != 0);
  4310   001406  5013               	movf	vfpfcnvrt@convarg^0,w,c
  4311   001408  1014               	iorwf	(vfpfcnvrt@convarg+1)^0,w,c
  4312   00140A  B4D8               	btfsc	status,2,c
  4313   00140C  EF0A  F00A         	goto	u2121
  4314   001410  EF0C  F00A         	goto	u2120
  4315   001414                     u2121:
  4316   001414  EF14  F00A         	goto	l3331
  4317   001418                     u2120:
  4318   001418  5017               	movf	vfpfcnvrt@c^0,w,c
  4319   00141A  A4D8               	btfss	status,2,c
  4320   00141C  EF12  F00A         	goto	u2131
  4321   001420  EF14  F00A         	goto	u2130
  4322   001424                     u2131:
  4323   001424  EFDD  F009         	goto	l3323
  4324   001428                     u2130:
  4325   001428                     l3331:
  4326                           
  4327                           ;D:\Program Files\Microchip\xc8\v2.45\pic\sources\c99\common\doprnt.c: 1417:    if (c !=
      +                           0 && done) {
  4328   001428  5017               	movf	vfpfcnvrt@c^0,w,c
  4329   00142A  B4D8               	btfsc	status,2,c
  4330   00142C  EF1A  F00A         	goto	u2141
  4331   001430  EF1C  F00A         	goto	u2140
  4332   001434                     u2141:
  4333   001434  EF3B  F00A         	goto	l3341
  4334   001438                     u2140:
  4335   001438  5011               	movf	vfpfcnvrt@done^0,w,c
  4336   00143A  B4D8               	btfsc	status,2,c
  4337   00143C  EF22  F00A         	goto	u2151
  4338   001440  EF24  F00A         	goto	u2150
  4339   001444                     u2151:
  4340   001444  EF3B  F00A         	goto	l3341
  4341   001448                     u2150:
  4342   001448                     
  4343                           ;D:\Program Files\Microchip\xc8\v2.45\pic\sources\c99\common\doprnt.c: 1418:     dbuf[--
      +                          c] = '-';
  4344   001448  0617               	decf	vfpfcnvrt@c^0,f,c
  4345   00144A  5017               	movf	vfpfcnvrt@c^0,w,c
  4346   00144C  0FA7               	addlw	low _dbuf
  4347   00144E  6ED9               	movwf	fsr2l,c
  4348   001450  6ADA               	clrf	fsr2h,c
  4349   001452  0E2D               	movlw	45
  4350   001454  6EDF               	movwf	indf2,c
  4351   001456  EF3B  F00A         	goto	l3341
  4352   00145A                     l3337:
  4353                           
  4354                           ;D:\Program Files\Microchip\xc8\v2.45\pic\sources\c99\common\doprnt.c: 1424:     fputc(d
      +                          buf[c++], fp);
  4355   00145A  5017               	movf	vfpfcnvrt@c^0,w,c
  4356   00145C  0FA7               	addlw	low _dbuf
  4357   00145E  6ED9               	movwf	fsr2l,c
  4358   001460  6ADA               	clrf	fsr2h,c
  4359   001462  50DF               	movf	indf2,w,c
  4360   001464  6E10               	movwf	??_vfpfcnvrt^0,c
  4361   001466  5010               	movf	??_vfpfcnvrt^0,w,c
  4362   001468  6E03               	movwf	fputc@c^0,c
  4363   00146A  6A04               	clrf	(fputc@c+1)^0,c
  4364   00146C  C00D  F005         	movff	vfpfcnvrt@fp,fputc@fp
  4365   001470  EC5F  F00F         	call	_fputc	;wreg free
  4366   001474  2A17               	incf	vfpfcnvrt@c^0,f,c
  4367   001476                     l3341:
  4368                           
  4369                           ;D:\Program Files\Microchip\xc8\v2.45\pic\sources\c99\common\doprnt.c: 1423:    while (c
      +                           != sizeof(dbuf)) {
  4370   001476  0E20               	movlw	32
  4371   001478  1817               	xorwf	vfpfcnvrt@c^0,w,c
  4372   00147A  A4D8               	btfss	status,2,c
  4373   00147C  EF42  F00A         	goto	u2161
  4374   001480  EF44  F00A         	goto	u2160
  4375   001484                     u2161:
  4376   001484  EF2D  F00A         	goto	l3337
  4377   001488                     u2160:
  4378   001488  EF5E  F00A         	goto	l1601
  4379   00148C                     l3343:
  4380                           
  4381                           ;D:\Program Files\Microchip\xc8\v2.45\pic\sources\c99\common\doprnt.c: 1806:         ++*
      +                          fmt;
  4382   00148C  500E               	movf	vfpfcnvrt@fmt^0,w,c
  4383   00148E  6ED9               	movwf	fsr2l,c
  4384   001490  6ADA               	clrf	fsr2h,c
  4385   001492  2ADF               	incf	indf2,f,c
  4386   001494  EF5E  F00A         	goto	l1601
  4387   001498                     l3347:
  4388                           
  4389                           ;D:\Program Files\Microchip\xc8\v2.45\pic\sources\c99\common\doprnt.c: 1811:     fputc((
      +                          int)(*fmt)[0], fp);
  4390   001498  500E               	movf	vfpfcnvrt@fmt^0,w,c
  4391   00149A  6ED9               	movwf	fsr2l,c
  4392   00149C  6ADA               	clrf	fsr2h,c
  4393   00149E  CFDF FFF6          	movff	indf2,tblptrl
  4394   0014A2                     	if	1	;There is more than 1 active tblptr byte
  4395   0014A2  0E10               	movlw	high __smallconst
  4396   0014A4  6EF7               	movwf	tblptrh,c
  4397   0014A6                     	endif
  4398   0014A6                     	if	1	;Program memory is < 0x10000, tblptru is always zero
  4399   0014A6  6AF8               	clrf	tblptru,c
  4400   0014A8                     	endif
  4401   0014A8                     	if	0	;tblptru may be non-zero
  4402   0014A8                     	endif
  4403   0014A8  0008               	tblrd		*
  4404   0014AA  50F5               	movf	tablat,w,c
  4405   0014AC  6E03               	movwf	fputc@c^0,c
  4406   0014AE  6A04               	clrf	(fputc@c+1)^0,c
  4407   0014B0  C00D  F005         	movff	vfpfcnvrt@fp,fputc@fp
  4408   0014B4  EC5F  F00F         	call	_fputc	;wreg free
  4409   0014B8  EF46  F00A         	goto	l3343
  4410   0014BC                     l1601:
  4411   0014BC  0012               	return		;funcret
  4412   0014BE                     __end_of_vfpfcnvrt:
  4413                           	callstack 0
  4414                           
  4415 ;; *************** function _fputc *****************
  4416 ;; Defined at:
  4417 ;;		line 8 in file "D:\Program Files\Microchip\xc8\v2.45\pic\sources\c99\common\nf_fputc.c"
  4418 ;; Parameters:    Size  Location     Type
  4419 ;;  c               2    2[COMRAM] int 
  4420 ;;  fp              1    4[COMRAM] PTR struct _IO_FILE
  4421 ;;		 -> sprintf@f(12), 
  4422 ;; Auto vars:     Size  Location     Type
  4423 ;;		None
  4424 ;; Return value:  Size  Location     Type
  4425 ;;                  2    2[COMRAM] int 
  4426 ;; Registers used:
  4427 ;;		wreg, fsr1l, fsr1h, fsr2l, fsr2h, status,2, status,0, cstack
  4428 ;; Tracked objects:
  4429 ;;		On entry : 0/0
  4430 ;;		On exit  : 0/0
  4431 ;;		Unchanged: 0/0
  4432 ;; Data sizes:     COMRAM   BANK0   BANK1   BANK2   BANK3   BANK4   BANK5   BANK6   BANK7   BANK8   BANK9  BANK10  BANK1
      +1  BANK12  BANK13  BANK14  BANK15
  4433 ;;      Params:         3       0       0       0       0       0       0       0       0       0       0       0       
      +0       0       0       0       0
  4434 ;;      Locals:         0       0       0       0       0       0       0       0       0       0       0       0       
      +0       0       0       0       0
  4435 ;;      Temps:          5       0       0       0       0       0       0       0       0       0       0       0       
      +0       0       0       0       0
  4436 ;;      Totals:         8       0       0       0       0       0       0       0       0       0       0       0       
      +0       0       0       0       0
  4437 ;;Total ram usage:        8 bytes
  4438 ;; Hardware stack levels used: 1
  4439 ;; Hardware stack levels required when called: 4
  4440 ;; This function calls:
  4441 ;;		_putch
  4442 ;; This function is called by:
  4443 ;;		_vfpfcnvrt
  4444 ;; This function uses a non-reentrant model
  4445 ;;
  4446                           
  4447                           	psect	text27
  4448   001EBE                     __ptext27:
  4449                           	callstack 0
  4450   001EBE                     _fputc:
  4451                           	callstack 20
  4452   001EBE  5005               	movf	fputc@fp^0,w,c
  4453   001EC0  B4D8               	btfsc	status,2,c
  4454   001EC2  EF65  F00F         	goto	u2021
  4455   001EC6  EF67  F00F         	goto	u2020
  4456   001ECA                     u2021:
  4457   001ECA  EF6F  F00F         	goto	l3281
  4458   001ECE                     u2020:
  4459   001ECE  5005               	movf	fputc@fp^0,w,c
  4460   001ED0  A4D8               	btfss	status,2,c
  4461   001ED2  EF6D  F00F         	goto	u2031
  4462   001ED6  EF6F  F00F         	goto	u2030
  4463   001EDA                     u2031:
  4464   001EDA  EF74  F00F         	goto	l3283
  4465   001EDE                     u2030:
  4466   001EDE                     l3281:
  4467   001EDE  5003               	movf	fputc@c^0,w,c
  4468   001EE0  EC71  F013         	call	_putch
  4469   001EE4  EFB3  F00F         	goto	l1626
  4470   001EE8                     l3283:
  4471   001EE8  5005               	movf	fputc@fp^0,w,c
  4472   001EEA  6ED9               	movwf	fsr2l,c
  4473   001EEC  6ADA               	clrf	fsr2h,c
  4474   001EEE  0E0A               	movlw	10
  4475   001EF0  26D9               	addwf	fsr2l,f,c
  4476   001EF2  50DE               	movf	postinc2,w,c
  4477   001EF4  10DE               	iorwf	postinc2,w,c
  4478   001EF6  B4D8               	btfsc	status,2,c
  4479   001EF8  EF80  F00F         	goto	u2041
  4480   001EFC  EF82  F00F         	goto	u2040
  4481   001F00                     u2041:
  4482   001F00  EF9B  F00F         	goto	l3287
  4483   001F04                     u2040:
  4484   001F04  5005               	movf	fputc@fp^0,w,c
  4485   001F06  6ED9               	movwf	fsr2l,c
  4486   001F08  6ADA               	clrf	fsr2h,c
  4487   001F0A  0E0A               	movlw	10
  4488   001F0C  26D9               	addwf	fsr2l,f,c
  4489   001F0E  5005               	movf	fputc@fp^0,w,c
  4490   001F10  6EE1               	movwf	fsr1l,c
  4491   001F12  6AE2               	clrf	fsr1h,c
  4492   001F14  0E03               	movlw	3
  4493   001F16  26E1               	addwf	fsr1l,f,c
  4494   001F18  50DE               	movf	postinc2,w,c
  4495   001F1A  5CE6               	subwf	postinc1,w,c
  4496   001F1C  50E6               	movf	postinc1,w,c
  4497   001F1E  0A80               	xorlw	128
  4498   001F20  6E0A               	movwf	(??_fputc+4)^0,c
  4499   001F22  50DE               	movf	postinc2,w,c
  4500   001F24  0A80               	xorlw	128
  4501   001F26  580A               	subwfb	(??_fputc+4)^0,w,c
  4502   001F28  B0D8               	btfsc	status,0,c
  4503   001F2A  EF99  F00F         	goto	u2051
  4504   001F2E  EF9B  F00F         	goto	u2050
  4505   001F32                     u2051:
  4506   001F32  EFB3  F00F         	goto	l1626
  4507   001F36                     u2050:
  4508   001F36                     l3287:
  4509   001F36  5005               	movf	fputc@fp^0,w,c
  4510   001F38  6ED9               	movwf	fsr2l,c
  4511   001F3A  6ADA               	clrf	fsr2h,c
  4512   001F3C  0E03               	movlw	3
  4513   001F3E  26D9               	addwf	fsr2l,f,c
  4514   001F40  50DF               	movf	indf2,w,c
  4515   001F42  6E06               	movwf	??_fputc^0,c
  4516   001F44  5005               	movf	fputc@fp^0,w,c
  4517   001F46  6ED9               	movwf	fsr2l,c
  4518   001F48  6ADA               	clrf	fsr2h,c
  4519   001F4A  50DF               	movf	indf2,w,c
  4520   001F4C  2406               	addwf	??_fputc^0,w,c
  4521   001F4E  6ED9               	movwf	fsr2l,c
  4522   001F50  6ADA               	clrf	fsr2h,c
  4523   001F52  C003  FFDF         	movff	fputc@c,indf2
  4524   001F56  5005               	movf	fputc@fp^0,w,c
  4525   001F58  6ED9               	movwf	fsr2l,c
  4526   001F5A  6ADA               	clrf	fsr2h,c
  4527   001F5C  0E03               	movlw	3
  4528   001F5E  26D9               	addwf	fsr2l,f,c
  4529   001F60  2ADE               	incf	postinc2,f,c
  4530   001F62  0E00               	movlw	0
  4531   001F64  22DD               	addwfc	postdec2,f,c
  4532   001F66                     l1626:
  4533   001F66  0012               	return		;funcret
  4534   001F68                     __end_of_fputc:
  4535                           	callstack 0
  4536                           
  4537 ;; *************** function _putch *****************
  4538 ;; Defined at:
  4539 ;;		line 7 in file "D:\Program Files\Microchip\xc8\v2.45\pic\sources\c99\common\putch.c"
  4540 ;; Parameters:    Size  Location     Type
  4541 ;;  c               1    wreg     unsigned char 
  4542 ;; Auto vars:     Size  Location     Type
  4543 ;;  c               1    0[COMRAM] unsigned char 
  4544 ;; Return value:  Size  Location     Type
  4545 ;;                  1    wreg      void 
  4546 ;; Registers used:
  4547 ;;		wreg
  4548 ;; Tracked objects:
  4549 ;;		On entry : 0/0
  4550 ;;		On exit  : 0/0
  4551 ;;		Unchanged: 0/0
  4552 ;; Data sizes:     COMRAM   BANK0   BANK1   BANK2   BANK3   BANK4   BANK5   BANK6   BANK7   BANK8   BANK9  BANK10  BANK1
      +1  BANK12  BANK13  BANK14  BANK15
  4553 ;;      Params:         0       0       0       0       0       0       0       0       0       0       0       0       
      +0       0       0       0       0
  4554 ;;      Locals:         0       0       0       0       0       0       0       0       0       0       0       0       
      +0       0       0       0       0
  4555 ;;      Temps:          0       0       0       0       0       0       0       0       0       0       0       0       
      +0       0       0       0       0
  4556 ;;      Totals:         0       0       0       0       0       0       0       0       0       0       0       0       
      +0       0       0       0       0
  4557 ;;Total ram usage:        0 bytes
  4558 ;; Hardware stack levels used: 1
  4559 ;; Hardware stack levels required when called: 3
  4560 ;; This function calls:
  4561 ;;		Nothing
  4562 ;; This function is called by:
  4563 ;;		_fputc
  4564 ;; This function uses a non-reentrant model
  4565 ;;
  4566                           
  4567                           	psect	text28
  4568   0026E2                     __ptext28:
  4569                           	callstack 0
  4570   0026E2                     _putch:
  4571                           	callstack 20
  4572   0026E2  0012               	return		;funcret
  4573   0026E4                     __end_of_putch:
  4574                           	callstack 0
  4575                           
  4576 ;; *************** function _abs *****************
  4577 ;; Defined at:
  4578 ;;		line 1 in file "D:\Program Files\Microchip\xc8\v2.45\pic\sources\c99\common\abs.c"
  4579 ;; Parameters:    Size  Location     Type
  4580 ;;  a               2    8[COMRAM] int 
  4581 ;; Auto vars:     Size  Location     Type
  4582 ;;		None
  4583 ;; Return value:  Size  Location     Type
  4584 ;;                  2    8[COMRAM] int 
  4585 ;; Registers used:
  4586 ;;		wreg, status,2, status,0
  4587 ;; Tracked objects:
  4588 ;;		On entry : 0/0
  4589 ;;		On exit  : 0/0
  4590 ;;		Unchanged: 0/0
  4591 ;; Data sizes:     COMRAM   BANK0   BANK1   BANK2   BANK3   BANK4   BANK5   BANK6   BANK7   BANK8   BANK9  BANK10  BANK1
      +1  BANK12  BANK13  BANK14  BANK15
  4592 ;;      Params:         2       0       0       0       0       0       0       0       0       0       0       0       
      +0       0       0       0       0
  4593 ;;      Locals:         0       0       0       0       0       0       0       0       0       0       0       0       
      +0       0       0       0       0
  4594 ;;      Temps:          2       0       0       0       0       0       0       0       0       0       0       0       
      +0       0       0       0       0
  4595 ;;      Totals:         4       0       0       0       0       0       0       0       0       0       0       0       
      +0       0       0       0       0
  4596 ;;Total ram usage:        4 bytes
  4597 ;; Hardware stack levels used: 1
  4598 ;; Hardware stack levels required when called: 3
  4599 ;; This function calls:
  4600 ;;		Nothing
  4601 ;; This function is called by:
  4602 ;;		_vfpfcnvrt
  4603 ;; This function uses a non-reentrant model
  4604 ;;
  4605                           
  4606                           	psect	text29
  4607   0025BA                     __ptext29:
  4608                           	callstack 0
  4609   0025BA                     _abs:
  4610                           	callstack 21
  4611   0025BA  BE0A               	btfsc	(abs@a+1)^0,7,c
  4612   0025BC  EFE2  F012         	goto	u2061
  4613   0025C0  EFE4  F012         	goto	u2060
  4614   0025C4                     u2061:
  4615   0025C4  EFEA  F012         	goto	l1611
  4616   0025C8                     u2060:
  4617   0025C8  C009  F009         	movff	abs@a,?_abs
  4618   0025CC  C00A  F00A         	movff	abs@a+1,?_abs+1
  4619   0025D0  EFF6  F012         	goto	l1614
  4620   0025D4                     l1611:
  4621   0025D4  C009  F00B         	movff	abs@a,??_abs
  4622   0025D8  C00A  F00C         	movff	abs@a+1,??_abs+1
  4623   0025DC  1E0B               	comf	??_abs^0,f,c
  4624   0025DE  1E0C               	comf	(??_abs+1)^0,f,c
  4625   0025E0  4A0B               	infsnz	??_abs^0,f,c
  4626   0025E2  2A0C               	incf	(??_abs+1)^0,f,c
  4627   0025E4  C00B  F009         	movff	??_abs,?_abs
  4628   0025E8  C00C  F00A         	movff	??_abs+1,?_abs+1
  4629   0025EC                     l1614:
  4630   0025EC  0012               	return		;funcret
  4631   0025EE                     __end_of_abs:
  4632                           	callstack 0
  4633                           
  4634 ;; *************** function ___awmod *****************
  4635 ;; Defined at:
  4636 ;;		line 7 in file "D:\Program Files\Microchip\xc8\v2.45\pic\sources\c99\common\awmod.c"
  4637 ;; Parameters:    Size  Location     Type
  4638 ;;  dividend        2    2[COMRAM] int 
  4639 ;;  divisor         2    4[COMRAM] int 
  4640 ;; Auto vars:     Size  Location     Type
  4641 ;;  sign            1    7[COMRAM] unsigned char 
  4642 ;;  counter         1    6[COMRAM] unsigned char 
  4643 ;; Return value:  Size  Location     Type
  4644 ;;                  2    2[COMRAM] int 
  4645 ;; Registers used:
  4646 ;;		wreg, status,2, status,0
  4647 ;; Tracked objects:
  4648 ;;		On entry : 0/0
  4649 ;;		On exit  : 0/0
  4650 ;;		Unchanged: 0/0
  4651 ;; Data sizes:     COMRAM   BANK0   BANK1   BANK2   BANK3   BANK4   BANK5   BANK6   BANK7   BANK8   BANK9  BANK10  BANK1
      +1  BANK12  BANK13  BANK14  BANK15
  4652 ;;      Params:         4       0       0       0       0       0       0       0       0       0       0       0       
      +0       0       0       0       0
  4653 ;;      Locals:         2       0       0       0       0       0       0       0       0       0       0       0       
      +0       0       0       0       0
  4654 ;;      Temps:          0       0       0       0       0       0       0       0       0       0       0       0       
      +0       0       0       0       0
  4655 ;;      Totals:         6       0       0       0       0       0       0       0       0       0       0       0       
      +0       0       0       0       0
  4656 ;;Total ram usage:        6 bytes
  4657 ;; Hardware stack levels used: 1
  4658 ;; Hardware stack levels required when called: 3
  4659 ;; This function calls:
  4660 ;;		Nothing
  4661 ;; This function is called by:
  4662 ;;		_write_clock
  4663 ;;		_vfpfcnvrt
  4664 ;; This function uses a non-reentrant model
  4665 ;;
  4666                           
  4667                           	psect	text30
  4668   001E0E                     __ptext30:
  4669                           	callstack 0
  4670   001E0E                     ___awmod:
  4671                           	callstack 26
  4672   001E0E  0E00               	movlw	0
  4673   001E10  6E08               	movwf	___awmod@sign^0,c
  4674   001E12  BE04               	btfsc	(___awmod@dividend+1)^0,7,c
  4675   001E14  EF10  F00F         	goto	u1960
  4676   001E18  EF0E  F00F         	goto	u1961
  4677   001E1C                     u1961:
  4678   001E1C  EF16  F00F         	goto	l3249
  4679   001E20                     u1960:
  4680   001E20  6C03               	negf	___awmod@dividend^0,c
  4681   001E22  1E04               	comf	(___awmod@dividend+1)^0,f,c
  4682   001E24  B0D8               	btfsc	status,0,c
  4683   001E26  2A04               	incf	(___awmod@dividend+1)^0,f,c
  4684   001E28  0E01               	movlw	1
  4685   001E2A  6E08               	movwf	___awmod@sign^0,c
  4686   001E2C                     l3249:
  4687   001E2C  BE06               	btfsc	(___awmod@divisor+1)^0,7,c
  4688   001E2E  EF1D  F00F         	goto	u1970
  4689   001E32  EF1B  F00F         	goto	u1971
  4690   001E36                     u1971:
  4691   001E36  EF21  F00F         	goto	l3253
  4692   001E3A                     u1970:
  4693   001E3A  6C05               	negf	___awmod@divisor^0,c
  4694   001E3C  1E06               	comf	(___awmod@divisor+1)^0,f,c
  4695   001E3E  B0D8               	btfsc	status,0,c
  4696   001E40  2A06               	incf	(___awmod@divisor+1)^0,f,c
  4697   001E42                     l3253:
  4698   001E42  5005               	movf	___awmod@divisor^0,w,c
  4699   001E44  1006               	iorwf	(___awmod@divisor+1)^0,w,c
  4700   001E46  B4D8               	btfsc	status,2,c
  4701   001E48  EF28  F00F         	goto	u1981
  4702   001E4C  EF2A  F00F         	goto	u1980
  4703   001E50                     u1981:
  4704   001E50  EF4E  F00F         	goto	l3269
  4705   001E54                     u1980:
  4706   001E54  0E01               	movlw	1
  4707   001E56  6E07               	movwf	___awmod@counter^0,c
  4708   001E58  EF32  F00F         	goto	l3259
  4709   001E5C                     l3257:
  4710   001E5C  90D8               	bcf	status,0,c
  4711   001E5E  3605               	rlcf	___awmod@divisor^0,f,c
  4712   001E60  3606               	rlcf	(___awmod@divisor+1)^0,f,c
  4713   001E62  2A07               	incf	___awmod@counter^0,f,c
  4714   001E64                     l3259:
  4715   001E64  AE06               	btfss	(___awmod@divisor+1)^0,7,c
  4716   001E66  EF37  F00F         	goto	u1991
  4717   001E6A  EF39  F00F         	goto	u1990
  4718   001E6E                     u1991:
  4719   001E6E  EF2E  F00F         	goto	l3257
  4720   001E72                     u1990:
  4721   001E72                     l3261:
  4722   001E72  5005               	movf	___awmod@divisor^0,w,c
  4723   001E74  5C03               	subwf	___awmod@dividend^0,w,c
  4724   001E76  5006               	movf	(___awmod@divisor+1)^0,w,c
  4725   001E78  5804               	subwfb	(___awmod@dividend+1)^0,w,c
  4726   001E7A  A0D8               	btfss	status,0,c
  4727   001E7C  EF42  F00F         	goto	u2001
  4728   001E80  EF44  F00F         	goto	u2000
  4729   001E84                     u2001:
  4730   001E84  EF48  F00F         	goto	l3265
  4731   001E88                     u2000:
  4732   001E88  5005               	movf	___awmod@divisor^0,w,c
  4733   001E8A  5E03               	subwf	___awmod@dividend^0,f,c
  4734   001E8C  5006               	movf	(___awmod@divisor+1)^0,w,c
  4735   001E8E  5A04               	subwfb	(___awmod@dividend+1)^0,f,c
  4736   001E90                     l3265:
  4737   001E90  90D8               	bcf	status,0,c
  4738   001E92  3206               	rrcf	(___awmod@divisor+1)^0,f,c
  4739   001E94  3205               	rrcf	___awmod@divisor^0,f,c
  4740   001E96  2E07               	decfsz	___awmod@counter^0,f,c
  4741   001E98  EF39  F00F         	goto	l3261
  4742   001E9C                     l3269:
  4743   001E9C  5008               	movf	___awmod@sign^0,w,c
  4744   001E9E  B4D8               	btfsc	status,2,c
  4745   001EA0  EF54  F00F         	goto	u2011
  4746   001EA4  EF56  F00F         	goto	u2010
  4747   001EA8                     u2011:
  4748   001EA8  EF5A  F00F         	goto	l3273
  4749   001EAC                     u2010:
  4750   001EAC  6C03               	negf	___awmod@dividend^0,c
  4751   001EAE  1E04               	comf	(___awmod@dividend+1)^0,f,c
  4752   001EB0  B0D8               	btfsc	status,0,c
  4753   001EB2  2A04               	incf	(___awmod@dividend+1)^0,f,c
  4754   001EB4                     l3273:
  4755   001EB4  C003  F003         	movff	___awmod@dividend,?___awmod
  4756   001EB8  C004  F004         	movff	___awmod@dividend+1,?___awmod+1
  4757   001EBC  0012               	return		;funcret
  4758   001EBE                     __end_of___awmod:
  4759                           	callstack 0
  4760                           
  4761 ;; *************** function ___awdiv *****************
  4762 ;; Defined at:
  4763 ;;		line 7 in file "D:\Program Files\Microchip\xc8\v2.45\pic\sources\c99\common\awdiv.c"
  4764 ;; Parameters:    Size  Location     Type
  4765 ;;  dividend        2    2[COMRAM] int 
  4766 ;;  divisor         2    4[COMRAM] int 
  4767 ;; Auto vars:     Size  Location     Type
  4768 ;;  quotient        2    8[COMRAM] int 
  4769 ;;  sign            1    7[COMRAM] unsigned char 
  4770 ;;  counter         1    6[COMRAM] unsigned char 
  4771 ;; Return value:  Size  Location     Type
  4772 ;;                  2    2[COMRAM] int 
  4773 ;; Registers used:
  4774 ;;		wreg, status,2, status,0
  4775 ;; Tracked objects:
  4776 ;;		On entry : 0/0
  4777 ;;		On exit  : 0/0
  4778 ;;		Unchanged: 0/0
  4779 ;; Data sizes:     COMRAM   BANK0   BANK1   BANK2   BANK3   BANK4   BANK5   BANK6   BANK7   BANK8   BANK9  BANK10  BANK1
      +1  BANK12  BANK13  BANK14  BANK15
  4780 ;;      Params:         4       0       0       0       0       0       0       0       0       0       0       0       
      +0       0       0       0       0
  4781 ;;      Locals:         4       0       0       0       0       0       0       0       0       0       0       0       
      +0       0       0       0       0
  4782 ;;      Temps:          0       0       0       0       0       0       0       0       0       0       0       0       
      +0       0       0       0       0
  4783 ;;      Totals:         8       0       0       0       0       0       0       0       0       0       0       0       
      +0       0       0       0       0
  4784 ;;Total ram usage:        8 bytes
  4785 ;; Hardware stack levels used: 1
  4786 ;; Hardware stack levels required when called: 3
  4787 ;; This function calls:
  4788 ;;		Nothing
  4789 ;; This function is called by:
  4790 ;;		_write_clock
  4791 ;;		_vfpfcnvrt
  4792 ;; This function uses a non-reentrant model
  4793 ;;
  4794                           
  4795                           	psect	text31
  4796   001D4A                     __ptext31:
  4797                           	callstack 0
  4798   001D4A                     ___awdiv:
  4799                           	callstack 26
  4800   001D4A  0E00               	movlw	0
  4801   001D4C  6E08               	movwf	___awdiv@sign^0,c
  4802   001D4E  BE06               	btfsc	(___awdiv@divisor+1)^0,7,c
  4803   001D50  EFAE  F00E         	goto	u1900
  4804   001D54  EFAC  F00E         	goto	u1901
  4805   001D58                     u1901:
  4806   001D58  EFB4  F00E         	goto	l3205
  4807   001D5C                     u1900:
  4808   001D5C  6C05               	negf	___awdiv@divisor^0,c
  4809   001D5E  1E06               	comf	(___awdiv@divisor+1)^0,f,c
  4810   001D60  B0D8               	btfsc	status,0,c
  4811   001D62  2A06               	incf	(___awdiv@divisor+1)^0,f,c
  4812   001D64  0E01               	movlw	1
  4813   001D66  6E08               	movwf	___awdiv@sign^0,c
  4814   001D68                     l3205:
  4815   001D68  BE04               	btfsc	(___awdiv@dividend+1)^0,7,c
  4816   001D6A  EFBB  F00E         	goto	u1910
  4817   001D6E  EFB9  F00E         	goto	u1911
  4818   001D72                     u1911:
  4819   001D72  EFC1  F00E         	goto	l3211
  4820   001D76                     u1910:
  4821   001D76  6C03               	negf	___awdiv@dividend^0,c
  4822   001D78  1E04               	comf	(___awdiv@dividend+1)^0,f,c
  4823   001D7A  B0D8               	btfsc	status,0,c
  4824   001D7C  2A04               	incf	(___awdiv@dividend+1)^0,f,c
  4825   001D7E  0E01               	movlw	1
  4826   001D80  1A08               	xorwf	___awdiv@sign^0,f,c
  4827   001D82                     l3211:
  4828   001D82  0E00               	movlw	0
  4829   001D84  6E0A               	movwf	(___awdiv@quotient+1)^0,c
  4830   001D86  0E00               	movlw	0
  4831   001D88  6E09               	movwf	___awdiv@quotient^0,c
  4832   001D8A  5005               	movf	___awdiv@divisor^0,w,c
  4833   001D8C  1006               	iorwf	(___awdiv@divisor+1)^0,w,c
  4834   001D8E  B4D8               	btfsc	status,2,c
  4835   001D90  EFCC  F00E         	goto	u1921
  4836   001D94  EFCE  F00E         	goto	u1920
  4837   001D98                     u1921:
  4838   001D98  EFF6  F00E         	goto	l3233
  4839   001D9C                     u1920:
  4840   001D9C  0E01               	movlw	1
  4841   001D9E  6E07               	movwf	___awdiv@counter^0,c
  4842   001DA0  EFD6  F00E         	goto	l3219
  4843   001DA4                     l3217:
  4844   001DA4  90D8               	bcf	status,0,c
  4845   001DA6  3605               	rlcf	___awdiv@divisor^0,f,c
  4846   001DA8  3606               	rlcf	(___awdiv@divisor+1)^0,f,c
  4847   001DAA  2A07               	incf	___awdiv@counter^0,f,c
  4848   001DAC                     l3219:
  4849   001DAC  AE06               	btfss	(___awdiv@divisor+1)^0,7,c
  4850   001DAE  EFDB  F00E         	goto	u1931
  4851   001DB2  EFDD  F00E         	goto	u1930
  4852   001DB6                     u1931:
  4853   001DB6  EFD2  F00E         	goto	l3217
  4854   001DBA                     u1930:
  4855   001DBA                     l3221:
  4856   001DBA  90D8               	bcf	status,0,c
  4857   001DBC  3609               	rlcf	___awdiv@quotient^0,f,c
  4858   001DBE  360A               	rlcf	(___awdiv@quotient+1)^0,f,c
  4859   001DC0  5005               	movf	___awdiv@divisor^0,w,c
  4860   001DC2  5C03               	subwf	___awdiv@dividend^0,w,c
  4861   001DC4  5006               	movf	(___awdiv@divisor+1)^0,w,c
  4862   001DC6  5804               	subwfb	(___awdiv@dividend+1)^0,w,c
  4863   001DC8  A0D8               	btfss	status,0,c
  4864   001DCA  EFE9  F00E         	goto	u1941
  4865   001DCE  EFEB  F00E         	goto	u1940
  4866   001DD2                     u1941:
  4867   001DD2  EFF0  F00E         	goto	l3229
  4868   001DD6                     u1940:
  4869   001DD6  5005               	movf	___awdiv@divisor^0,w,c
  4870   001DD8  5E03               	subwf	___awdiv@dividend^0,f,c
  4871   001DDA  5006               	movf	(___awdiv@divisor+1)^0,w,c
  4872   001DDC  5A04               	subwfb	(___awdiv@dividend+1)^0,f,c
  4873   001DDE  8009               	bsf	___awdiv@quotient^0,0,c
  4874   001DE0                     l3229:
  4875   001DE0  90D8               	bcf	status,0,c
  4876   001DE2  3206               	rrcf	(___awdiv@divisor+1)^0,f,c
  4877   001DE4  3205               	rrcf	___awdiv@divisor^0,f,c
  4878   001DE6  2E07               	decfsz	___awdiv@counter^0,f,c
  4879   001DE8  EFDD  F00E         	goto	l3221
  4880   001DEC                     l3233:
  4881   001DEC  5008               	movf	___awdiv@sign^0,w,c
  4882   001DEE  B4D8               	btfsc	status,2,c
  4883   001DF0  EFFC  F00E         	goto	u1951
  4884   001DF4  EFFE  F00E         	goto	u1950
  4885   001DF8                     u1951:
  4886   001DF8  EF02  F00F         	goto	l3237
  4887   001DFC                     u1950:
  4888   001DFC  6C09               	negf	___awdiv@quotient^0,c
  4889   001DFE  1E0A               	comf	(___awdiv@quotient+1)^0,f,c
  4890   001E00  B0D8               	btfsc	status,0,c
  4891   001E02  2A0A               	incf	(___awdiv@quotient+1)^0,f,c
  4892   001E04                     l3237:
  4893   001E04  C009  F003         	movff	___awdiv@quotient,?___awdiv
  4894   001E08  C00A  F004         	movff	___awdiv@quotient+1,?___awdiv+1
  4895   001E0C  0012               	return		;funcret
  4896   001E0E                     __end_of___awdiv:
  4897                           	callstack 0
  4898                           
  4899 ;; *************** function _memset *****************
  4900 ;; Defined at:
  4901 ;;		line 3 in file "D:\Program Files\Microchip\xc8\v2.45\pic\sources\c99\common\memset.c"
  4902 ;; Parameters:    Size  Location     Type
  4903 ;;  dest            1    2[COMRAM] PTR void 
  4904 ;;		 -> Set_Time@display_value(4), 
  4905 ;;  c               2    3[COMRAM] int 
  4906 ;;  n               2    5[COMRAM] unsigned int 
  4907 ;; Auto vars:     Size  Location     Type
  4908 ;;  p               1    7[COMRAM] PTR unsigned char 
  4909 ;;		 -> Set_Time@display_value(4), 
  4910 ;; Return value:  Size  Location     Type
  4911 ;;                  1    wreg      PTR void 
  4912 ;; Registers used:
  4913 ;;		wreg, fsr2l, fsr2h, status,2, status,0
  4914 ;; Tracked objects:
  4915 ;;		On entry : 0/0
  4916 ;;		On exit  : 0/0
  4917 ;;		Unchanged: 0/0
  4918 ;; Data sizes:     COMRAM   BANK0   BANK1   BANK2   BANK3   BANK4   BANK5   BANK6   BANK7   BANK8   BANK9  BANK10  BANK1
      +1  BANK12  BANK13  BANK14  BANK15
  4919 ;;      Params:         5       0       0       0       0       0       0       0       0       0       0       0       
      +0       0       0       0       0
  4920 ;;      Locals:         1       0       0       0       0       0       0       0       0       0       0       0       
      +0       0       0       0       0
  4921 ;;      Temps:          0       0       0       0       0       0       0       0       0       0       0       0       
      +0       0       0       0       0
  4922 ;;      Totals:         6       0       0       0       0       0       0       0       0       0       0       0       
      +0       0       0       0       0
  4923 ;;Total ram usage:        6 bytes
  4924 ;; Hardware stack levels used: 1
  4925 ;; Hardware stack levels required when called: 3
  4926 ;; This function calls:
  4927 ;;		Nothing
  4928 ;; This function is called by:
  4929 ;;		_convert_byte_to_string
  4930 ;;		_convert_short_to_string
  4931 ;;		_convert_int_to_string
  4932 ;; This function uses a non-reentrant model
  4933 ;;
  4934                           
  4935                           	psect	text32
  4936   0025EE                     __ptext32:
  4937                           	callstack 0
  4938   0025EE                     _memset:
  4939                           	callstack 24
  4940   0025EE  C003  F008         	movff	memset@dest,memset@p
  4941   0025F2  EF01  F013         	goto	l3463
  4942   0025F6                     l3459:
  4943   0025F6  5008               	movf	memset@p^0,w,c
  4944   0025F8  6ED9               	movwf	fsr2l,c
  4945   0025FA  6ADA               	clrf	fsr2h,c
  4946   0025FC  C004  FFDF         	movff	memset@c,indf2
  4947   002600  2A08               	incf	memset@p^0,f,c
  4948   002602                     l3463:
  4949   002602  0606               	decf	memset@n^0,f,c
  4950   002604  A0D8               	btfss	status,0,c
  4951   002606  0607               	decf	(memset@n+1)^0,f,c
  4952   002608  2806               	incf	memset@n^0,w,c
  4953   00260A  E106               	bnz	u2361
  4954   00260C  2807               	incf	(memset@n+1)^0,w,c
  4955   00260E  A4D8               	btfss	status,2,c
  4956   002610  EF0C  F013         	goto	u2361
  4957   002614  EF0E  F013         	goto	u2360
  4958   002618                     u2361:
  4959   002618  EFFB  F012         	goto	l3459
  4960   00261C                     u2360:
  4961   00261C  0012               	return		;funcret
  4962   00261E                     __end_of_memset:
  4963                           	callstack 0
  4964                           
  4965 ;; *************** function _Timer0_Init *****************
  4966 ;; Defined at:
  4967 ;;		line 19 in file "MCAL_LAYER/Timer0/timer0.c"
  4968 ;; Parameters:    Size  Location     Type
  4969 ;;  obj             1    2[COMRAM] PTR const struct .
  4970 ;;		 -> delay(9), 
  4971 ;; Auto vars:     Size  Location     Type
  4972 ;;  ret             1    0        unsigned char 
  4973 ;; Return value:  Size  Location     Type
  4974 ;;                  1    wreg      unsigned char 
  4975 ;; Registers used:
  4976 ;;		wreg, fsr2l, fsr2h, status,2, status,0
  4977 ;; Tracked objects:
  4978 ;;		On entry : 0/0
  4979 ;;		On exit  : 0/0
  4980 ;;		Unchanged: 0/0
  4981 ;; Data sizes:     COMRAM   BANK0   BANK1   BANK2   BANK3   BANK4   BANK5   BANK6   BANK7   BANK8   BANK9  BANK10  BANK1
      +1  BANK12  BANK13  BANK14  BANK15
  4982 ;;      Params:         1       0       0       0       0       0       0       0       0       0       0       0       
      +0       0       0       0       0
  4983 ;;      Locals:         0       0       0       0       0       0       0       0       0       0       0       0       
      +0       0       0       0       0
  4984 ;;      Temps:          2       0       0       0       0       0       0       0       0       0       0       0       
      +0       0       0       0       0
  4985 ;;      Totals:         3       0       0       0       0       0       0       0       0       0       0       0       
      +0       0       0       0       0
  4986 ;;Total ram usage:        3 bytes
  4987 ;; Hardware stack levels used: 1
  4988 ;; Hardware stack levels required when called: 3
  4989 ;; This function calls:
  4990 ;;		Nothing
  4991 ;; This function is called by:
  4992 ;;		_intialization
  4993 ;;		_Set_Time
  4994 ;; This function uses a non-reentrant model
  4995 ;;
  4996                           
  4997                           	psect	text33
  4998   0014BE                     __ptext33:
  4999                           	callstack 0
  5000   0014BE                     _Timer0_Init:
  5001                           	callstack 26
  5002   0014BE                     
  5003                           ;MCAL_LAYER/Timer0/timer0.c: 22:     if (((void*)0) == obj){
  5004   0014BE  5003               	movf	Timer0_Init@obj^0,w,c
  5005   0014C0  A4D8               	btfss	status,2,c
  5006   0014C2  EF65  F00A         	goto	u2371
  5007   0014C6  EF67  F00A         	goto	u2370
  5008   0014CA                     u2371:
  5009   0014CA  EF69  F00A         	goto	l693
  5010   0014CE                     u2370:
  5011   0014CE                     
  5012                           ;MCAL_LAYER/Timer0/timer0.c: 24:     }
  5013   0014CE  EF14  F00B         	goto	l711
  5014   0014D2                     l693:
  5015                           
  5016                           ;MCAL_LAYER/Timer0/timer0.c: 30:         (T0CONbits.TMR0ON=0);
  5017   0014D2  9ED5               	bcf	213,7,c	;volatile
  5018   0014D4                     
  5019                           ;MCAL_LAYER/Timer0/timer0.c: 34:         if (obj->Register_Size_flag == 1 ){
  5020   0014D4  5003               	movf	Timer0_Init@obj^0,w,c
  5021   0014D6  6ED9               	movwf	fsr2l,c
  5022   0014D8  6ADA               	clrf	fsr2h,c
  5023   0014DA  0E03               	movlw	3
  5024   0014DC  26D9               	addwf	fsr2l,f,c
  5025   0014DE  A0DF               	btfss	indf2,0,c
  5026   0014E0  EF74  F00A         	goto	u2381
  5027   0014E4  EF76  F00A         	goto	u2380
  5028   0014E8                     u2381:
  5029   0014E8  EF79  F00A         	goto	l3511
  5030   0014EC                     u2380:
  5031   0014EC                     
  5032                           ;MCAL_LAYER/Timer0/timer0.c: 35:             (T0CONbits.T08BIT=1);
  5033   0014EC  8CD5               	bsf	213,6,c	;volatile
  5034                           
  5035                           ;MCAL_LAYER/Timer0/timer0.c: 36:         }
  5036   0014EE  EF86  F00A         	goto	l3515
  5037   0014F2                     l3511:
  5038   0014F2  5003               	movf	Timer0_Init@obj^0,w,c
  5039   0014F4  6ED9               	movwf	fsr2l,c
  5040   0014F6  6ADA               	clrf	fsr2h,c
  5041   0014F8  0E03               	movlw	3
  5042   0014FA  26D9               	addwf	fsr2l,f,c
  5043   0014FC  B0DF               	btfsc	indf2,0,c
  5044   0014FE  EF83  F00A         	goto	u2391
  5045   001502  EF85  F00A         	goto	u2390
  5046   001506                     u2391:
  5047   001506  EF86  F00A         	goto	l3515
  5048   00150A                     u2390:
  5049   00150A                     
  5050                           ;MCAL_LAYER/Timer0/timer0.c: 38:             (T0CONbits.T08BIT=0);
  5051   00150A  9CD5               	bcf	213,6,c	;volatile
  5052   00150C                     l3515:
  5053                           
  5054                           ;MCAL_LAYER/Timer0/timer0.c: 44:         if (obj->mode == Timer_mode ){
  5055   00150C  5003               	movf	Timer0_Init@obj^0,w,c
  5056   00150E  6ED9               	movwf	fsr2l,c
  5057   001510  6ADA               	clrf	fsr2h,c
  5058   001512  0E04               	movlw	4
  5059   001514  26D9               	addwf	fsr2l,f,c
  5060   001516  50DF               	movf	indf2,w,c
  5061   001518  A4D8               	btfss	status,2,c
  5062   00151A  EF91  F00A         	goto	u2401
  5063   00151E  EF93  F00A         	goto	u2400
  5064   001522                     u2401:
  5065   001522  EF96  F00A         	goto	l3519
  5066   001526                     u2400:
  5067   001526                     
  5068                           ;MCAL_LAYER/Timer0/timer0.c: 45:             (T0CONbits.T0CS=0);
  5069   001526  9AD5               	bcf	213,5,c	;volatile
  5070                           
  5071                           ;MCAL_LAYER/Timer0/timer0.c: 46:         }
  5072   001528  EFC2  F00A         	goto	l3531
  5073   00152C                     l3519:
  5074   00152C  5003               	movf	Timer0_Init@obj^0,w,c
  5075   00152E  6ED9               	movwf	fsr2l,c
  5076   001530  6ADA               	clrf	fsr2h,c
  5077   001532  0E04               	movlw	4
  5078   001534  26D9               	addwf	fsr2l,f,c
  5079   001536  04DE               	decf	postinc2,w,c
  5080   001538  A4D8               	btfss	status,2,c
  5081   00153A  EFA1  F00A         	goto	u2411
  5082   00153E  EFA3  F00A         	goto	u2410
  5083   001542                     u2411:
  5084   001542  EFC2  F00A         	goto	l3531
  5085   001546                     u2410:
  5086   001546                     
  5087                           ;MCAL_LAYER/Timer0/timer0.c: 48:             (T0CONbits.T0CS=1);
  5088   001546  8AD5               	bsf	213,5,c	;volatile
  5089   001548                     
  5090                           ;MCAL_LAYER/Timer0/timer0.c: 49:             if (obj->Edge_flag == 1){(T0CONbits.T0SE=0)
      +                          ;}
  5091   001548  5003               	movf	Timer0_Init@obj^0,w,c
  5092   00154A  6ED9               	movwf	fsr2l,c
  5093   00154C  6ADA               	clrf	fsr2h,c
  5094   00154E  0E05               	movlw	5
  5095   001550  26D9               	addwf	fsr2l,f,c
  5096   001552  A0DF               	btfss	indf2,0,c
  5097   001554  EFAE  F00A         	goto	u2421
  5098   001558  EFB0  F00A         	goto	u2420
  5099   00155C                     u2421:
  5100   00155C  EFB3  F00A         	goto	l3527
  5101   001560                     u2420:
  5102   001560  98D5               	bcf	213,4,c	;volatile
  5103   001562  EFC2  F00A         	goto	l3531
  5104   001566                     l3527:
  5105   001566  5003               	movf	Timer0_Init@obj^0,w,c
  5106   001568  6ED9               	movwf	fsr2l,c
  5107   00156A  6ADA               	clrf	fsr2h,c
  5108   00156C  0E05               	movlw	5
  5109   00156E  26D9               	addwf	fsr2l,f,c
  5110   001570  B0DF               	btfsc	indf2,0,c
  5111   001572  EFBD  F00A         	goto	u2431
  5112   001576  EFBF  F00A         	goto	u2430
  5113   00157A                     u2431:
  5114   00157A  EFC2  F00A         	goto	l706
  5115   00157E                     u2430:
  5116   00157E  88D5               	bsf	213,4,c	;volatile
  5117   001580  EFC2  F00A         	goto	l3531
  5118   001584                     l706:
  5119   001584                     l3531:
  5120                           
  5121                           ;MCAL_LAYER/Timer0/timer0.c: 57:         if (obj->PSA_flag == 1){
  5122   001584  5003               	movf	Timer0_Init@obj^0,w,c
  5123   001586  6ED9               	movwf	fsr2l,c
  5124   001588  6ADA               	clrf	fsr2h,c
  5125   00158A  0E05               	movlw	5
  5126   00158C  26D9               	addwf	fsr2l,f,c
  5127   00158E  A2DF               	btfss	indf2,1,c
  5128   001590  EFCC  F00A         	goto	u2441
  5129   001594  EFCE  F00A         	goto	u2440
  5130   001598                     u2441:
  5131   001598  EFDD  F00A         	goto	l3537
  5132   00159C                     u2440:
  5133   00159C                     
  5134                           ;MCAL_LAYER/Timer0/timer0.c: 58:             (T0CONbits.PSA=0);
  5135   00159C  96D5               	bcf	213,3,c	;volatile
  5136   00159E                     
  5137                           ;MCAL_LAYER/Timer0/timer0.c: 59:             T0CONbits.T0PS=obj->PSA;
  5138   00159E  5003               	movf	Timer0_Init@obj^0,w,c
  5139   0015A0  6ED9               	movwf	fsr2l,c
  5140   0015A2  6ADA               	clrf	fsr2h,c
  5141   0015A4  0E06               	movlw	6
  5142   0015A6  26D9               	addwf	fsr2l,f,c
  5143   0015A8  50DF               	movf	indf2,w,c
  5144   0015AA  6E04               	movwf	??_Timer0_Init^0,c
  5145   0015AC  50D5               	movf	213,w,c	;volatile
  5146   0015AE  1804               	xorwf	??_Timer0_Init^0,w,c
  5147   0015B0  0BF8               	andlw	-8
  5148   0015B2  1804               	xorwf	??_Timer0_Init^0,w,c
  5149   0015B4  6ED5               	movwf	213,c	;volatile
  5150                           
  5151                           ;MCAL_LAYER/Timer0/timer0.c: 60:         }
  5152   0015B6  EFEA  F00A         	goto	l708
  5153   0015BA                     l3537:
  5154   0015BA  5003               	movf	Timer0_Init@obj^0,w,c
  5155   0015BC  6ED9               	movwf	fsr2l,c
  5156   0015BE  6ADA               	clrf	fsr2h,c
  5157   0015C0  0E05               	movlw	5
  5158   0015C2  26D9               	addwf	fsr2l,f,c
  5159   0015C4  B2DF               	btfsc	indf2,1,c
  5160   0015C6  EFE7  F00A         	goto	u2451
  5161   0015CA  EFE9  F00A         	goto	u2450
  5162   0015CE                     u2451:
  5163   0015CE  EFEA  F00A         	goto	l708
  5164   0015D2                     u2450:
  5165   0015D2  86D5               	bsf	213,3,c	;volatile
  5166   0015D4                     l708:
  5167                           
  5168                           ;MCAL_LAYER/Timer0/timer0.c: 68:          (INTCONbits.GIE=1);
  5169   0015D4  8EF2               	bsf	242,7,c	;volatile
  5170                           
  5171                           ;MCAL_LAYER/Timer0/timer0.c: 69:          (INTCONbits.PEIE=1);
  5172   0015D6  8CF2               	bsf	242,6,c	;volatile
  5173                           
  5174                           ;MCAL_LAYER/Timer0/timer0.c: 71:          (INTCONbits.TMR0IE =1);
  5175   0015D8  8AF2               	bsf	242,5,c	;volatile
  5176                           
  5177                           ;MCAL_LAYER/Timer0/timer0.c: 72:          (INTCONbits.TMR0IF =0);
  5178   0015DA  94F2               	bcf	242,2,c	;volatile
  5179   0015DC                     
  5180                           ;MCAL_LAYER/Timer0/timer0.c: 84:          Timer0_InterruptHandler=obj->Timer0_InterruptH
      +                          andler;
  5181   0015DC  5003               	movf	Timer0_Init@obj^0,w,c
  5182   0015DE  6ED9               	movwf	fsr2l,c
  5183   0015E0  6ADA               	clrf	fsr2h,c
  5184   0015E2  CFDE F046          	movff	postinc2,_Timer0_InterruptHandler
  5185   0015E6  CFDD F047          	movff	postdec2,_Timer0_InterruptHandler+1
  5186   0015EA                     
  5187                           ;MCAL_LAYER/Timer0/timer0.c: 88:          TMR0H=(obj->period) >> 8;
  5188   0015EA  5003               	movf	Timer0_Init@obj^0,w,c
  5189   0015EC  6ED9               	movwf	fsr2l,c
  5190   0015EE  6ADA               	clrf	fsr2h,c
  5191   0015F0  0E07               	movlw	7
  5192   0015F2  26D9               	addwf	fsr2l,f,c
  5193   0015F4  CFDE F004          	movff	postinc2,??_Timer0_Init
  5194   0015F8  CFDD F005          	movff	postdec2,??_Timer0_Init+1
  5195   0015FC  C005  F004         	movff	??_Timer0_Init+1,??_Timer0_Init
  5196   001600  6A05               	clrf	(??_Timer0_Init+1)^0,c
  5197   001602  5004               	movf	??_Timer0_Init^0,w,c
  5198   001604  6ED7               	movwf	215,c	;volatile
  5199   001606                     
  5200                           ;MCAL_LAYER/Timer0/timer0.c: 89:          TMR0L=(uint_8)(obj->period);
  5201   001606  5003               	movf	Timer0_Init@obj^0,w,c
  5202   001608  6ED9               	movwf	fsr2l,c
  5203   00160A  6ADA               	clrf	fsr2h,c
  5204   00160C  0E07               	movlw	7
  5205   00160E  26D9               	addwf	fsr2l,f,c
  5206   001610  50DF               	movf	indf2,w,c
  5207   001612  6ED6               	movwf	214,c	;volatile
  5208   001614                     
  5209                           ;MCAL_LAYER/Timer0/timer0.c: 90:          tmr0_preload=obj->period;
  5210   001614  5003               	movf	Timer0_Init@obj^0,w,c
  5211   001616  6ED9               	movwf	fsr2l,c
  5212   001618  6ADA               	clrf	fsr2h,c
  5213   00161A  0E07               	movlw	7
  5214   00161C  26D9               	addwf	fsr2l,f,c
  5215   00161E  CFDE F044          	movff	postinc2,_tmr0_preload
  5216   001622  CFDD F045          	movff	postdec2,_tmr0_preload+1
  5217   001626                     
  5218                           ;MCAL_LAYER/Timer0/timer0.c: 93:          (T0CONbits.TMR0ON=1);
  5219   001626  8ED5               	bsf	213,7,c	;volatile
  5220   001628                     l711:
  5221   001628  0012               	return		;funcret
  5222   00162A                     __end_of_Timer0_Init:
  5223                           	callstack 0
  5224                           
  5225 ;; *************** function _Timer0_DeInit *****************
  5226 ;; Defined at:
  5227 ;;		line 102 in file "MCAL_LAYER/Timer0/timer0.c"
  5228 ;; Parameters:    Size  Location     Type
  5229 ;;  obj             1    2[COMRAM] PTR const struct .
  5230 ;;		 -> delay(9), 
  5231 ;; Auto vars:     Size  Location     Type
  5232 ;;  ret             1    0        unsigned char 
  5233 ;; Return value:  Size  Location     Type
  5234 ;;                  1    wreg      unsigned char 
  5235 ;; Registers used:
  5236 ;;		wreg, status,2
  5237 ;; Tracked objects:
  5238 ;;		On entry : 0/0
  5239 ;;		On exit  : 0/0
  5240 ;;		Unchanged: 0/0
  5241 ;; Data sizes:     COMRAM   BANK0   BANK1   BANK2   BANK3   BANK4   BANK5   BANK6   BANK7   BANK8   BANK9  BANK10  BANK1
      +1  BANK12  BANK13  BANK14  BANK15
  5242 ;;      Params:         1       0       0       0       0       0       0       0       0       0       0       0       
      +0       0       0       0       0
  5243 ;;      Locals:         0       0       0       0       0       0       0       0       0       0       0       0       
      +0       0       0       0       0
  5244 ;;      Temps:          0       0       0       0       0       0       0       0       0       0       0       0       
      +0       0       0       0       0
  5245 ;;      Totals:         1       0       0       0       0       0       0       0       0       0       0       0       
      +0       0       0       0       0
  5246 ;;Total ram usage:        1 bytes
  5247 ;; Hardware stack levels used: 1
  5248 ;; Hardware stack levels required when called: 3
  5249 ;; This function calls:
  5250 ;;		Nothing
  5251 ;; This function is called by:
  5252 ;;		_Set_Time
  5253 ;; This function uses a non-reentrant model
  5254 ;;
  5255                           
  5256                           	psect	text34
  5257   002684                     __ptext34:
  5258                           	callstack 0
  5259   002684                     _Timer0_DeInit:
  5260                           	callstack 25
  5261   002684                     
  5262                           ;MCAL_LAYER/Timer0/timer0.c: 107:     if (((void*)0) == obj){
  5263   002684  5003               	movf	Timer0_DeInit@obj^0,w,c
  5264   002686  A4D8               	btfss	status,2,c
  5265   002688  EF48  F013         	goto	u2531
  5266   00268C  EF4A  F013         	goto	u2530
  5267   002690                     u2531:
  5268   002690  EF4C  F013         	goto	l714
  5269   002694                     u2530:
  5270   002694                     
  5271                           ;MCAL_LAYER/Timer0/timer0.c: 109:     }
  5272   002694  EF4E  F013         	goto	l716
  5273   002698                     l714:
  5274                           
  5275                           ;MCAL_LAYER/Timer0/timer0.c: 111:           (T0CONbits.TMR0ON=0);
  5276   002698  9ED5               	bcf	213,7,c	;volatile
  5277                           
  5278                           ;MCAL_LAYER/Timer0/timer0.c: 113:            (INTCONbits.TMR0IE =0);
  5279   00269A  9AF2               	bcf	242,5,c	;volatile
  5280   00269C                     l716:
  5281   00269C  0012               	return		;funcret
  5282   00269E                     __end_of_Timer0_DeInit:
  5283                           	callstack 0
  5284                           
  5285 ;; *************** function _InterruptManger *****************
  5286 ;; Defined at:
  5287 ;;		line 55 in file "MCAL_LAYER/interrupt/mcal_interrupt_mamager.c"
  5288 ;; Parameters:    Size  Location     Type
  5289 ;;		None
  5290 ;; Auto vars:     Size  Location     Type
  5291 ;;		None
  5292 ;; Return value:  Size  Location     Type
  5293 ;;                  1    wreg      void 
  5294 ;; Registers used:
  5295 ;;		wreg, status,2, status,0, pcl, pclath, pclatu, tosl, cstack
  5296 ;; Tracked objects:
  5297 ;;		On entry : 0/0
  5298 ;;		On exit  : 0/0
  5299 ;;		Unchanged: 0/0
  5300 ;; Data sizes:     COMRAM   BANK0   BANK1   BANK2   BANK3   BANK4   BANK5   BANK6   BANK7   BANK8   BANK9  BANK10  BANK1
      +1  BANK12  BANK13  BANK14  BANK15
  5301 ;;      Params:         0       0       0       0       0       0       0       0       0       0       0       0       
      +0       0       0       0       0
  5302 ;;      Locals:         0       0       0       0       0       0       0       0       0       0       0       0       
      +0       0       0       0       0
  5303 ;;      Temps:          2       0       0       0       0       0       0       0       0       0       0       0       
      +0       0       0       0       0
  5304 ;;      Totals:         2       0       0       0       0       0       0       0       0       0       0       0       
      +0       0       0       0       0
  5305 ;;Total ram usage:        2 bytes
  5306 ;; Hardware stack levels used: 1
  5307 ;; Hardware stack levels required when called: 2
  5308 ;; This function calls:
  5309 ;;		_INT0_ISR
  5310 ;;		_INT1_ISR
  5311 ;;		_INT2_ISR
  5312 ;;		_TMR1_ISR
  5313 ;;		_TMR2_ISR
  5314 ;;		_TMR3_ISR
  5315 ;;		_Timer0_ISR
  5316 ;; This function is called by:
  5317 ;;		Interrupt level 2
  5318 ;; This function uses a non-reentrant model
  5319 ;;
  5320                           
  5321                           	psect	intcode
  5322   000008                     __pintcode:
  5323                           	callstack 0
  5324   000008                     _InterruptManger:
  5325                           	callstack 20
  5326                           
  5327                           ;incstack = 0
  5328   000008  8279               	bsf	int$flags,1,c	;set compiler interrupt flag (level 2)
  5329   00000A  EDD3  F00C         	call	int_func,f	;refresh shadow registers
  5330                           
  5331                           	psect	intcode_body
  5332   0019A6                     __pintcode_body:
  5333                           	callstack 20
  5334   0019A6                     int_func:
  5335                           	callstack 20
  5336   0019A6  0006               	pop		; remove dummy address from shadow register refresh
  5337   0019A8  CFFA F001          	movff	pclath,??_InterruptManger
  5338   0019AC  CFFB F002          	movff	pclatu,??_InterruptManger+1
  5339   0019B0                     
  5340                           ;MCAL_LAYER/interrupt/mcal_interrupt_mamager.c: 57:     if ((1 == INTCONbits.INT0IE)&&(1
      +                           == INTCONbits.INT0IF)){
  5341   0019B0  A8F2               	btfss	242,4,c	;volatile
  5342   0019B2  EFDD  F00C         	goto	i2u141_41
  5343   0019B6  EFDF  F00C         	goto	i2u141_40
  5344   0019BA                     i2u141_41:
  5345   0019BA  EFE8  F00C         	goto	i2l2919
  5346   0019BE                     i2u141_40:
  5347   0019BE  A2F2               	btfss	242,1,c	;volatile
  5348   0019C0  EFE4  F00C         	goto	i2u142_41
  5349   0019C4  EFE6  F00C         	goto	i2u142_40
  5350   0019C8                     i2u142_41:
  5351   0019C8  EFE8  F00C         	goto	i2l2919
  5352   0019CC                     i2u142_40:
  5353   0019CC                     
  5354                           ;MCAL_LAYER/interrupt/mcal_interrupt_mamager.c: 58:         INT0_ISR();
  5355   0019CC  EC6F  F013         	call	_INT0_ISR	;wreg free
  5356   0019D0                     i2l2919:
  5357                           
  5358                           ;MCAL_LAYER/interrupt/mcal_interrupt_mamager.c: 60:      if ((1 == INTCON3bits.INT1IE)&&
      +                          (1 == INTCON3bits.INT1IF)){
  5359   0019D0  A6F0               	btfss	240,3,c	;volatile
  5360   0019D2  EFED  F00C         	goto	i2u143_41
  5361   0019D6  EFEF  F00C         	goto	i2u143_40
  5362   0019DA                     i2u143_41:
  5363   0019DA  EFF8  F00C         	goto	i2l2925
  5364   0019DE                     i2u143_40:
  5365   0019DE  A0F0               	btfss	240,0,c	;volatile
  5366   0019E0  EFF4  F00C         	goto	i2u144_41
  5367   0019E4  EFF6  F00C         	goto	i2u144_40
  5368   0019E8                     i2u144_41:
  5369   0019E8  EFF8  F00C         	goto	i2l2925
  5370   0019EC                     i2u144_40:
  5371   0019EC                     
  5372                           ;MCAL_LAYER/interrupt/mcal_interrupt_mamager.c: 61:         INT1_ISR();
  5373   0019EC  EC6D  F013         	call	_INT1_ISR	;wreg free
  5374   0019F0                     i2l2925:
  5375                           
  5376                           ;MCAL_LAYER/interrupt/mcal_interrupt_mamager.c: 63:      if ((1 == INTCON3bits.INT2IE)&&
      +                          (1 == INTCON3bits.INT2IF)){
  5377   0019F0  A8F0               	btfss	240,4,c	;volatile
  5378   0019F2  EFFD  F00C         	goto	i2u145_41
  5379   0019F6  EFFF  F00C         	goto	i2u145_40
  5380   0019FA                     i2u145_41:
  5381   0019FA  EF08  F00D         	goto	i2l2931
  5382   0019FE                     i2u145_40:
  5383   0019FE  A2F0               	btfss	240,1,c	;volatile
  5384   001A00  EF04  F00D         	goto	i2u146_41
  5385   001A04  EF06  F00D         	goto	i2u146_40
  5386   001A08                     i2u146_41:
  5387   001A08  EF08  F00D         	goto	i2l2931
  5388   001A0C                     i2u146_40:
  5389   001A0C                     
  5390                           ;MCAL_LAYER/interrupt/mcal_interrupt_mamager.c: 64:         INT2_ISR();
  5391   001A0C  EC6B  F013         	call	_INT2_ISR	;wreg free
  5392   001A10                     i2l2931:
  5393                           
  5394                           ;MCAL_LAYER/interrupt/mcal_interrupt_mamager.c: 66:     if ((1 ==INTCONbits.TMR0IE )&&(1
      +                           ==INTCONbits.TMR0IF)){
  5395   001A10  AAF2               	btfss	242,5,c	;volatile
  5396   001A12  EF0D  F00D         	goto	i2u147_41
  5397   001A16  EF0F  F00D         	goto	i2u147_40
  5398   001A1A                     i2u147_41:
  5399   001A1A  EF18  F00D         	goto	i2l2937
  5400   001A1E                     i2u147_40:
  5401   001A1E  A4F2               	btfss	242,2,c	;volatile
  5402   001A20  EF14  F00D         	goto	i2u148_41
  5403   001A24  EF16  F00D         	goto	i2u148_40
  5404   001A28                     i2u148_41:
  5405   001A28  EF18  F00D         	goto	i2l2937
  5406   001A2C                     i2u148_40:
  5407   001A2C                     
  5408                           ;MCAL_LAYER/interrupt/mcal_interrupt_mamager.c: 67:         Timer0_ISR();
  5409   001A2C  ECA8  F012         	call	_Timer0_ISR	;wreg free
  5410   001A30                     i2l2937:
  5411                           
  5412                           ;MCAL_LAYER/interrupt/mcal_interrupt_mamager.c: 69:     if ((1 ==PIE1bits.TMR1IE )&&(1 =
      +                          =PIR1bits.TMR1IF)){
  5413   001A30  A09D               	btfss	157,0,c	;volatile
  5414   001A32  EF1D  F00D         	goto	i2u149_41
  5415   001A36  EF1F  F00D         	goto	i2u149_40
  5416   001A3A                     i2u149_41:
  5417   001A3A  EF28  F00D         	goto	i2l2943
  5418   001A3E                     i2u149_40:
  5419   001A3E  A09E               	btfss	158,0,c	;volatile
  5420   001A40  EF24  F00D         	goto	i2u150_41
  5421   001A44  EF26  F00D         	goto	i2u150_40
  5422   001A48                     i2u150_41:
  5423   001A48  EF28  F00D         	goto	i2l2943
  5424   001A4C                     i2u150_40:
  5425   001A4C                     
  5426                           ;MCAL_LAYER/interrupt/mcal_interrupt_mamager.c: 70:         TMR1_ISR();
  5427   001A4C  EC61  F013         	call	_TMR1_ISR	;wreg free
  5428   001A50                     i2l2943:
  5429                           
  5430                           ;MCAL_LAYER/interrupt/mcal_interrupt_mamager.c: 72:      if ((1 ==PIE1bits.TMR2IE )&&(1 
      +                          ==PIR1bits.TMR2IF)){
  5431   001A50  A29D               	btfss	157,1,c	;volatile
  5432   001A52  EF2D  F00D         	goto	i2u151_41
  5433   001A56  EF2F  F00D         	goto	i2u151_40
  5434   001A5A                     i2u151_41:
  5435   001A5A  EF38  F00D         	goto	i2l2949
  5436   001A5E                     i2u151_40:
  5437   001A5E  A29E               	btfss	158,1,c	;volatile
  5438   001A60  EF34  F00D         	goto	i2u152_41
  5439   001A64  EF36  F00D         	goto	i2u152_40
  5440   001A68                     i2u152_41:
  5441   001A68  EF38  F00D         	goto	i2l2949
  5442   001A6C                     i2u152_40:
  5443   001A6C                     
  5444                           ;MCAL_LAYER/interrupt/mcal_interrupt_mamager.c: 73:         TMR2_ISR();
  5445   001A6C  EC67  F013         	call	_TMR2_ISR	;wreg free
  5446   001A70                     i2l2949:
  5447                           
  5448                           ;MCAL_LAYER/interrupt/mcal_interrupt_mamager.c: 75:     if ((1 ==PIE2bits.TMR3IE )&&(1 =
      +                          =PIR2bits.TMR3IF)){
  5449   001A70  A2A0               	btfss	160,1,c	;volatile
  5450   001A72  EF3D  F00D         	goto	i2u153_41
  5451   001A76  EF3F  F00D         	goto	i2u153_40
  5452   001A7A                     i2u153_41:
  5453   001A7A  EF48  F00D         	goto	i2l678
  5454   001A7E                     i2u153_40:
  5455   001A7E  A2A1               	btfss	161,1,c	;volatile
  5456   001A80  EF44  F00D         	goto	i2u154_41
  5457   001A84  EF46  F00D         	goto	i2u154_40
  5458   001A88                     i2u154_41:
  5459   001A88  EF48  F00D         	goto	i2l678
  5460   001A8C                     i2u154_40:
  5461   001A8C                     
  5462                           ;MCAL_LAYER/interrupt/mcal_interrupt_mamager.c: 76:         TMR3_ISR();
  5463   001A8C  EC5B  F013         	call	_TMR3_ISR	;wreg free
  5464   001A90                     i2l678:
  5465   001A90  C002  FFFB         	movff	??_InterruptManger+1,pclatu
  5466   001A94  C001  FFFA         	movff	??_InterruptManger,pclath
  5467   001A98  9279               	bcf	int$flags,1,c	;clear compiler interrupt flag (level 2)
  5468   001A9A  0011               	retfie		f
  5469   001A9C                     __end_of_InterruptManger:
  5470                           	callstack 0
  5471                           
  5472 ;; *************** function _Timer0_ISR *****************
  5473 ;; Defined at:
  5474 ;;		line 163 in file "MCAL_LAYER/Timer0/timer0.c"
  5475 ;; Parameters:    Size  Location     Type
  5476 ;;		None
  5477 ;; Auto vars:     Size  Location     Type
  5478 ;;		None
  5479 ;; Return value:  Size  Location     Type
  5480 ;;                  1    wreg      void 
  5481 ;; Registers used:
  5482 ;;		wreg, status,2, status,0, pcl, pclath, pclatu, tosl, cstack
  5483 ;; Tracked objects:
  5484 ;;		On entry : 0/0
  5485 ;;		On exit  : 0/0
  5486 ;;		Unchanged: 0/0
  5487 ;; Data sizes:     COMRAM   BANK0   BANK1   BANK2   BANK3   BANK4   BANK5   BANK6   BANK7   BANK8   BANK9  BANK10  BANK1
      +1  BANK12  BANK13  BANK14  BANK15
  5488 ;;      Params:         0       0       0       0       0       0       0       0       0       0       0       0       
      +0       0       0       0       0
  5489 ;;      Locals:         0       0       0       0       0       0       0       0       0       0       0       0       
      +0       0       0       0       0
  5490 ;;      Temps:          0       0       0       0       0       0       0       0       0       0       0       0       
      +0       0       0       0       0
  5491 ;;      Totals:         0       0       0       0       0       0       0       0       0       0       0       0       
      +0       0       0       0       0
  5492 ;;Total ram usage:        0 bytes
  5493 ;; Hardware stack levels used: 1
  5494 ;; Hardware stack levels required when called: 1
  5495 ;; This function calls:
  5496 ;;		NULL
  5497 ;;		_TMR0_ISR
  5498 ;; This function is called by:
  5499 ;;		_InterruptManger
  5500 ;; This function uses a non-reentrant model
  5501 ;;
  5502                           
  5503                           	psect	text36
  5504   002550                     __ptext36:
  5505                           	callstack 0
  5506   002550                     _Timer0_ISR:
  5507                           	callstack 20
  5508   002550                     
  5509                           ;MCAL_LAYER/Timer0/timer0.c: 165:     (INTCONbits.TMR0IF =0);
  5510   002550  94F2               	bcf	242,2,c	;volatile
  5511   002552                     
  5512                           ;MCAL_LAYER/Timer0/timer0.c: 166:      TMR0H=(tmr0_preload) >> 8;
  5513   002552  5045               	movf	(_tmr0_preload+1)^0,w,c
  5514   002554  6ED7               	movwf	215,c	;volatile
  5515   002556                     
  5516                           ;MCAL_LAYER/Timer0/timer0.c: 167:      TMR0L=(uint_8)(tmr0_preload);
  5517   002556  C044  FFD6         	movff	_tmr0_preload,4054	;volatile
  5518   00255A                     
  5519                           ;MCAL_LAYER/Timer0/timer0.c: 168:     if(Timer0_InterruptHandler){
  5520   00255A  5046               	movf	_Timer0_InterruptHandler^0,w,c
  5521   00255C  1047               	iorwf	(_Timer0_InterruptHandler+1)^0,w,c
  5522   00255E  B4D8               	btfsc	status,2,c
  5523   002560  EFB4  F012         	goto	i2u102_41
  5524   002564  EFB6  F012         	goto	i2u102_40
  5525   002568                     i2u102_41:
  5526   002568  EFC2  F012         	goto	i2l730
  5527   00256C                     i2u102_40:
  5528   00256C                     
  5529                           ;MCAL_LAYER/Timer0/timer0.c: 169:         Timer0_InterruptHandler();
  5530   00256C  D802               	call	i2u103_48
  5531   00256E  EFC2  F012         	goto	i2u103_49
  5532   002572                     i2u103_48:
  5533   002572  0005               	push	
  5534   002574  6EFA               	movwf	pclath,c
  5535   002576  5046               	movf	_Timer0_InterruptHandler^0,w,c
  5536   002578  6EFD               	movwf	tosl,c
  5537   00257A  5047               	movf	(_Timer0_InterruptHandler+1)^0,w,c
  5538   00257C  6EFE               	movwf	tosh,c
  5539   00257E  6AFF               	clrf	tosu,c
  5540   002580  50FA               	movf	pclath,w,c
  5541   002582  0012               	return		;indir
  5542   002584                     i2u103_49:
  5543   002584                     i2l730:
  5544   002584  0012               	return		;funcret
  5545   002586                     __end_of_Timer0_ISR:
  5546                           	callstack 0
  5547                           
  5548 ;; *************** function _TMR0_ISR *****************
  5549 ;; Defined at:
  5550 ;;		line 34 in file "function.c"
  5551 ;; Parameters:    Size  Location     Type
  5552 ;;		None
  5553 ;; Auto vars:     Size  Location     Type
  5554 ;;		None
  5555 ;; Return value:  Size  Location     Type
  5556 ;;                  1    wreg      void 
  5557 ;; Registers used:
  5558 ;;		wreg, status,2, status,0
  5559 ;; Tracked objects:
  5560 ;;		On entry : 0/0
  5561 ;;		On exit  : 0/0
  5562 ;;		Unchanged: 0/0
  5563 ;; Data sizes:     COMRAM   BANK0   BANK1   BANK2   BANK3   BANK4   BANK5   BANK6   BANK7   BANK8   BANK9  BANK10  BANK1
      +1  BANK12  BANK13  BANK14  BANK15
  5564 ;;      Params:         0       0       0       0       0       0       0       0       0       0       0       0       
      +0       0       0       0       0
  5565 ;;      Locals:         0       0       0       0       0       0       0       0       0       0       0       0       
      +0       0       0       0       0
  5566 ;;      Temps:          0       0       0       0       0       0       0       0       0       0       0       0       
      +0       0       0       0       0
  5567 ;;      Totals:         0       0       0       0       0       0       0       0       0       0       0       0       
      +0       0       0       0       0
  5568 ;;Total ram usage:        0 bytes
  5569 ;; Hardware stack levels used: 1
  5570 ;; This function calls:
  5571 ;;		Nothing
  5572 ;; This function is called by:
  5573 ;;		_Timer0_ISR
  5574 ;; This function uses a non-reentrant model
  5575 ;;
  5576                           
  5577                           	psect	text37
  5578   002190                     __ptext37:
  5579                           	callstack 0
  5580   002190                     _TMR0_ISR:
  5581                           	callstack 20
  5582   002190                     
  5583                           ;function.c: 35:  counter++;
  5584   002190  2A5B               	incf	_counter^0,f,c
  5585   002192                     
  5586                           ;function.c: 36:  if (counter == 2){
  5587   002192  0E02               	movlw	2
  5588   002194  185B               	xorwf	_counter^0,w,c
  5589   002196  A4D8               	btfss	status,2,c
  5590   002198  EFD0  F010         	goto	i2u78_41
  5591   00219C  EFD2  F010         	goto	i2u78_40
  5592   0021A0                     i2u78_41:
  5593   0021A0  EFF5  F010         	goto	i2l130
  5594   0021A4                     i2u78_40:
  5595   0021A4                     
  5596                           ;function.c: 37:   counter=0,sec++;
  5597   0021A4  0E00               	movlw	0
  5598   0021A6  6E5B               	movwf	_counter^0,c
  5599   0021A8  2A60               	incf	_sec^0,f,c
  5600   0021AA                     
  5601                           ;function.c: 38:   if(sec>59){sec=0,min++;}
  5602   0021AA  0E3B               	movlw	59
  5603   0021AC  6460               	cpfsgt	_sec^0,c
  5604   0021AE  EFDB  F010         	goto	i2u79_41
  5605   0021B2  EFDD  F010         	goto	i2u79_40
  5606   0021B6                     i2u79_41:
  5607   0021B6  EFE0  F010         	goto	i2l2197
  5608   0021BA                     i2u79_40:
  5609   0021BA  0E00               	movlw	0
  5610   0021BC  6E60               	movwf	_sec^0,c
  5611   0021BE  2A5F               	incf	_min^0,f,c
  5612   0021C0                     i2l2197:
  5613                           
  5614                           ;function.c: 39:   if(min>59){min=0,hours++;}
  5615   0021C0  0E3B               	movlw	59
  5616   0021C2  645F               	cpfsgt	_min^0,c
  5617   0021C4  EFE6  F010         	goto	i2u80_41
  5618   0021C8  EFE8  F010         	goto	i2u80_40
  5619   0021CC                     i2u80_41:
  5620   0021CC  EFEB  F010         	goto	i2l2203
  5621   0021D0                     i2u80_40:
  5622   0021D0  0E00               	movlw	0
  5623   0021D2  6E5F               	movwf	_min^0,c
  5624   0021D4  2A5E               	incf	_hours^0,f,c
  5625   0021D6                     i2l2203:
  5626                           
  5627                           ;function.c: 40:   if(hours>23){hours=0;}
  5628   0021D6  0E17               	movlw	23
  5629   0021D8  645E               	cpfsgt	_hours^0,c
  5630   0021DA  EFF1  F010         	goto	i2u81_41
  5631   0021DE  EFF3  F010         	goto	i2u81_40
  5632   0021E2                     i2u81_41:
  5633   0021E2  EFF5  F010         	goto	i2l130
  5634   0021E6                     i2u81_40:
  5635   0021E6  0E00               	movlw	0
  5636   0021E8  6E5E               	movwf	_hours^0,c
  5637   0021EA                     i2l130:
  5638   0021EA  0012               	return		;funcret
  5639   0021EC                     __end_of_TMR0_ISR:
  5640                           	callstack 0
  5641                           
  5642 ;; *************** function _TMR3_ISR *****************
  5643 ;; Defined at:
  5644 ;;		line 132 in file "MCAL_LAYER/Timer3/TMR3.c"
  5645 ;; Parameters:    Size  Location     Type
  5646 ;;		None
  5647 ;; Auto vars:     Size  Location     Type
  5648 ;;		None
  5649 ;; Return value:  Size  Location     Type
  5650 ;;                  1    wreg      void 
  5651 ;; Registers used:
  5652 ;;		wreg, status,2
  5653 ;; Tracked objects:
  5654 ;;		On entry : 0/0
  5655 ;;		On exit  : 0/0
  5656 ;;		Unchanged: 0/0
  5657 ;; Data sizes:     COMRAM   BANK0   BANK1   BANK2   BANK3   BANK4   BANK5   BANK6   BANK7   BANK8   BANK9  BANK10  BANK1
      +1  BANK12  BANK13  BANK14  BANK15
  5658 ;;      Params:         0       0       0       0       0       0       0       0       0       0       0       0       
      +0       0       0       0       0
  5659 ;;      Locals:         0       0       0       0       0       0       0       0       0       0       0       0       
      +0       0       0       0       0
  5660 ;;      Temps:          0       0       0       0       0       0       0       0       0       0       0       0       
      +0       0       0       0       0
  5661 ;;      Totals:         0       0       0       0       0       0       0       0       0       0       0       0       
      +0       0       0       0       0
  5662 ;;Total ram usage:        0 bytes
  5663 ;; Hardware stack levels used: 1
  5664 ;; This function calls:
  5665 ;;		Nothing
  5666 ;; This function is called by:
  5667 ;;		_InterruptManger
  5668 ;; This function uses a non-reentrant model
  5669 ;;
  5670                           
  5671                           	psect	text38
  5672   0026B6                     __ptext38:
  5673                           	callstack 0
  5674   0026B6                     _TMR3_ISR:
  5675                           	callstack 21
  5676   0026B6                     
  5677                           ;MCAL_LAYER/Timer3/TMR3.c: 134:     (PIR2bits.TMR3IF=0);
  5678   0026B6  92A1               	bcf	161,1,c	;volatile
  5679   0026B8                     
  5680                           ;MCAL_LAYER/Timer3/TMR3.c: 135:      TMR3H=(TMR3_preload) >> 8;
  5681   0026B8  503B               	movf	(_TMR3_preload+1)^0,w,c
  5682   0026BA  6EB3               	movwf	179,c	;volatile
  5683   0026BC                     
  5684                           ;MCAL_LAYER/Timer3/TMR3.c: 136:      TMR3L=(uint_8)(TMR3_preload);
  5685   0026BC  C03A  FFB2         	movff	_TMR3_preload,4018	;volatile
  5686   0026C0  0012               	return		;funcret
  5687   0026C2                     __end_of_TMR3_ISR:
  5688                           	callstack 0
  5689                           
  5690 ;; *************** function _TMR2_ISR *****************
  5691 ;; Defined at:
  5692 ;;		line 112 in file "MCAL_LAYER/Timer2/TMR2.c"
  5693 ;; Parameters:    Size  Location     Type
  5694 ;;		None
  5695 ;; Auto vars:     Size  Location     Type
  5696 ;;		None
  5697 ;; Return value:  Size  Location     Type
  5698 ;;                  1    wreg      void 
  5699 ;; Registers used:
  5700 ;;		None
  5701 ;; Tracked objects:
  5702 ;;		On entry : 0/0
  5703 ;;		On exit  : 0/0
  5704 ;;		Unchanged: 0/0
  5705 ;; Data sizes:     COMRAM   BANK0   BANK1   BANK2   BANK3   BANK4   BANK5   BANK6   BANK7   BANK8   BANK9  BANK10  BANK1
      +1  BANK12  BANK13  BANK14  BANK15
  5706 ;;      Params:         0       0       0       0       0       0       0       0       0       0       0       0       
      +0       0       0       0       0
  5707 ;;      Locals:         0       0       0       0       0       0       0       0       0       0       0       0       
      +0       0       0       0       0
  5708 ;;      Temps:          0       0       0       0       0       0       0       0       0       0       0       0       
      +0       0       0       0       0
  5709 ;;      Totals:         0       0       0       0       0       0       0       0       0       0       0       0       
      +0       0       0       0       0
  5710 ;;Total ram usage:        0 bytes
  5711 ;; Hardware stack levels used: 1
  5712 ;; This function calls:
  5713 ;;		Nothing
  5714 ;; This function is called by:
  5715 ;;		_InterruptManger
  5716 ;; This function uses a non-reentrant model
  5717 ;;
  5718                           
  5719                           	psect	text39
  5720   0026CE                     __ptext39:
  5721                           	callstack 0
  5722   0026CE                     _TMR2_ISR:
  5723                           	callstack 21
  5724   0026CE                     
  5725                           ;MCAL_LAYER/Timer2/TMR2.c: 114:     (PIR1bits.TMR2IF=0);
  5726   0026CE  929E               	bcf	158,1,c	;volatile
  5727                           
  5728                           ;MCAL_LAYER/Timer2/TMR2.c: 115:     TMR2=TMR2_preload;
  5729   0026D0  C057  FFCC         	movff	_TMR2_preload,4044	;volatile
  5730   0026D4  0012               	return		;funcret
  5731   0026D6                     __end_of_TMR2_ISR:
  5732                           	callstack 0
  5733                           
  5734 ;; *************** function _TMR1_ISR *****************
  5735 ;; Defined at:
  5736 ;;		line 147 in file "MCAL_LAYER/Timer1/TMR1.c"
  5737 ;; Parameters:    Size  Location     Type
  5738 ;;		None
  5739 ;; Auto vars:     Size  Location     Type
  5740 ;;		None
  5741 ;; Return value:  Size  Location     Type
  5742 ;;                  1    wreg      void 
  5743 ;; Registers used:
  5744 ;;		wreg, status,2
  5745 ;; Tracked objects:
  5746 ;;		On entry : 0/0
  5747 ;;		On exit  : 0/0
  5748 ;;		Unchanged: 0/0
  5749 ;; Data sizes:     COMRAM   BANK0   BANK1   BANK2   BANK3   BANK4   BANK5   BANK6   BANK7   BANK8   BANK9  BANK10  BANK1
      +1  BANK12  BANK13  BANK14  BANK15
  5750 ;;      Params:         0       0       0       0       0       0       0       0       0       0       0       0       
      +0       0       0       0       0
  5751 ;;      Locals:         0       0       0       0       0       0       0       0       0       0       0       0       
      +0       0       0       0       0
  5752 ;;      Temps:          0       0       0       0       0       0       0       0       0       0       0       0       
      +0       0       0       0       0
  5753 ;;      Totals:         0       0       0       0       0       0       0       0       0       0       0       0       
      +0       0       0       0       0
  5754 ;;Total ram usage:        0 bytes
  5755 ;; Hardware stack levels used: 1
  5756 ;; This function calls:
  5757 ;;		Nothing
  5758 ;; This function is called by:
  5759 ;;		_InterruptManger
  5760 ;; This function uses a non-reentrant model
  5761 ;;
  5762                           
  5763                           	psect	text40
  5764   0026C2                     __ptext40:
  5765                           	callstack 0
  5766   0026C2                     _TMR1_ISR:
  5767                           	callstack 21
  5768   0026C2                     
  5769                           ;MCAL_LAYER/Timer1/TMR1.c: 149:     (PIR1bits.TMR1IF=0);
  5770   0026C2  909E               	bcf	158,0,c	;volatile
  5771   0026C4                     
  5772                           ;MCAL_LAYER/Timer1/TMR1.c: 150:      TMR1H=(TMR1_preload) >> 8;
  5773   0026C4  5041               	movf	(_TMR1_preload+1)^0,w,c
  5774   0026C6  6ECF               	movwf	207,c	;volatile
  5775   0026C8                     
  5776                           ;MCAL_LAYER/Timer1/TMR1.c: 151:      TMR1L=(uint_8)(TMR1_preload);
  5777   0026C8  C040  FFCE         	movff	_TMR1_preload,4046	;volatile
  5778   0026CC  0012               	return		;funcret
  5779   0026CE                     __end_of_TMR1_ISR:
  5780                           	callstack 0
  5781                           
  5782 ;; *************** function _INT2_ISR *****************
  5783 ;; Defined at:
  5784 ;;		line 93 in file "MCAL_LAYER/interrupt/mcal_external_interrupt.c"
  5785 ;; Parameters:    Size  Location     Type
  5786 ;;		None
  5787 ;; Auto vars:     Size  Location     Type
  5788 ;;		None
  5789 ;; Return value:  Size  Location     Type
  5790 ;;                  1    wreg      void 
  5791 ;; Registers used:
  5792 ;;		None
  5793 ;; Tracked objects:
  5794 ;;		On entry : 0/0
  5795 ;;		On exit  : 0/0
  5796 ;;		Unchanged: 0/0
  5797 ;; Data sizes:     COMRAM   BANK0   BANK1   BANK2   BANK3   BANK4   BANK5   BANK6   BANK7   BANK8   BANK9  BANK10  BANK1
      +1  BANK12  BANK13  BANK14  BANK15
  5798 ;;      Params:         0       0       0       0       0       0       0       0       0       0       0       0       
      +0       0       0       0       0
  5799 ;;      Locals:         0       0       0       0       0       0       0       0       0       0       0       0       
      +0       0       0       0       0
  5800 ;;      Temps:          0       0       0       0       0       0       0       0       0       0       0       0       
      +0       0       0       0       0
  5801 ;;      Totals:         0       0       0       0       0       0       0       0       0       0       0       0       
      +0       0       0       0       0
  5802 ;;Total ram usage:        0 bytes
  5803 ;; Hardware stack levels used: 1
  5804 ;; This function calls:
  5805 ;;		Nothing
  5806 ;; This function is called by:
  5807 ;;		_InterruptManger
  5808 ;; This function uses a non-reentrant model
  5809 ;;
  5810                           
  5811                           	psect	text41
  5812   0026D6                     __ptext41:
  5813                           	callstack 0
  5814   0026D6                     _INT2_ISR:
  5815                           	callstack 21
  5816   0026D6                     
  5817                           ;MCAL_LAYER/interrupt/mcal_external_interrupt.c: 96:     (INTCON3bits.INT2IF=0);
  5818   0026D6  92F0               	bcf	240,1,c	;volatile
  5819   0026D8  0012               	return		;funcret
  5820   0026DA                     __end_of_INT2_ISR:
  5821                           	callstack 0
  5822                           
  5823 ;; *************** function _INT1_ISR *****************
  5824 ;; Defined at:
  5825 ;;		line 79 in file "MCAL_LAYER/interrupt/mcal_external_interrupt.c"
  5826 ;; Parameters:    Size  Location     Type
  5827 ;;		None
  5828 ;; Auto vars:     Size  Location     Type
  5829 ;;		None
  5830 ;; Return value:  Size  Location     Type
  5831 ;;                  1    wreg      void 
  5832 ;; Registers used:
  5833 ;;		None
  5834 ;; Tracked objects:
  5835 ;;		On entry : 0/0
  5836 ;;		On exit  : 0/0
  5837 ;;		Unchanged: 0/0
  5838 ;; Data sizes:     COMRAM   BANK0   BANK1   BANK2   BANK3   BANK4   BANK5   BANK6   BANK7   BANK8   BANK9  BANK10  BANK1
      +1  BANK12  BANK13  BANK14  BANK15
  5839 ;;      Params:         0       0       0       0       0       0       0       0       0       0       0       0       
      +0       0       0       0       0
  5840 ;;      Locals:         0       0       0       0       0       0       0       0       0       0       0       0       
      +0       0       0       0       0
  5841 ;;      Temps:          0       0       0       0       0       0       0       0       0       0       0       0       
      +0       0       0       0       0
  5842 ;;      Totals:         0       0       0       0       0       0       0       0       0       0       0       0       
      +0       0       0       0       0
  5843 ;;Total ram usage:        0 bytes
  5844 ;; Hardware stack levels used: 1
  5845 ;; This function calls:
  5846 ;;		Nothing
  5847 ;; This function is called by:
  5848 ;;		_InterruptManger
  5849 ;; This function uses a non-reentrant model
  5850 ;;
  5851                           
  5852                           	psect	text42
  5853   0026DA                     __ptext42:
  5854                           	callstack 0
  5855   0026DA                     _INT1_ISR:
  5856                           	callstack 21
  5857   0026DA                     
  5858                           ;MCAL_LAYER/interrupt/mcal_external_interrupt.c: 82:     (INTCON3bits.INT1IF=0);
  5859   0026DA  90F0               	bcf	240,0,c	;volatile
  5860   0026DC  0012               	return		;funcret
  5861   0026DE                     __end_of_INT1_ISR:
  5862                           	callstack 0
  5863                           
  5864 ;; *************** function _INT0_ISR *****************
  5865 ;; Defined at:
  5866 ;;		line 65 in file "MCAL_LAYER/interrupt/mcal_external_interrupt.c"
  5867 ;; Parameters:    Size  Location     Type
  5868 ;;		None
  5869 ;; Auto vars:     Size  Location     Type
  5870 ;;		None
  5871 ;; Return value:  Size  Location     Type
  5872 ;;                  1    wreg      void 
  5873 ;; Registers used:
  5874 ;;		None
  5875 ;; Tracked objects:
  5876 ;;		On entry : 0/0
  5877 ;;		On exit  : 0/0
  5878 ;;		Unchanged: 0/0
  5879 ;; Data sizes:     COMRAM   BANK0   BANK1   BANK2   BANK3   BANK4   BANK5   BANK6   BANK7   BANK8   BANK9  BANK10  BANK1
      +1  BANK12  BANK13  BANK14  BANK15
  5880 ;;      Params:         0       0       0       0       0       0       0       0       0       0       0       0       
      +0       0       0       0       0
  5881 ;;      Locals:         0       0       0       0       0       0       0       0       0       0       0       0       
      +0       0       0       0       0
  5882 ;;      Temps:          0       0       0       0       0       0       0       0       0       0       0       0       
      +0       0       0       0       0
  5883 ;;      Totals:         0       0       0       0       0       0       0       0       0       0       0       0       
      +0       0       0       0       0
  5884 ;;Total ram usage:        0 bytes
  5885 ;; Hardware stack levels used: 1
  5886 ;; This function calls:
  5887 ;;		Nothing
  5888 ;; This function is called by:
  5889 ;;		_InterruptManger
  5890 ;; This function uses a non-reentrant model
  5891 ;;
  5892                           
  5893                           	psect	text43
  5894   0026DE                     __ptext43:
  5895                           	callstack 0
  5896   0026DE                     _INT0_ISR:
  5897                           	callstack 21
  5898   0026DE                     
  5899                           ;MCAL_LAYER/interrupt/mcal_external_interrupt.c: 68:     (INTCONbits.INT0IF=0);
  5900   0026DE  92F2               	bcf	242,1,c	;volatile
  5901   0026E0  0012               	return		;funcret
  5902   0026E2                     __end_of_INT0_ISR:
  5903                           	callstack 0
  5904                           
  5905                           	psect	text44
  5906   000000                     __ptext44:
  5907                           	callstack 0
  5908   000000                     
  5909                           	psect	rparam
  5910   000000                     
  5911                           	psect	temp
  5912   000079                     btemp:
  5913                           	callstack 0
  5914   000079                     	ds	1
  5915   000000                     int$flags	set	btemp
  5916   000000                     wtemp8	set	btemp+1
  5917   000000                     ttemp5	set	btemp+1
  5918   000000                     ttemp6	set	btemp+4
  5919   000000                     ttemp7	set	btemp+8
  5920                           
  5921                           	psect	config
  5922                           
  5923                           ; Padding undefined space
  5924   300000                     	org	3145728
  5925   300000  FF                 	db	255
  5926                           
  5927                           ;Config register CONFIG1H @ 0x300001
  5928                           ;	Oscillator Selection bits
  5929                           ;	OSC = HS, HS oscillator
  5930                           ;	Fail-Safe Clock Monitor Enable bit
  5931                           ;	FCMEN = OFF, Fail-Safe Clock Monitor disabled
  5932                           ;	Internal/External Oscillator Switchover bit
  5933                           ;	IESO = OFF, Oscillator Switchover mode disabled
  5934   300001                     	org	3145729
  5935   300001  02                 	db	2
  5936                           
  5937                           ;Config register CONFIG2L @ 0x300002
  5938                           ;	Power-up Timer Enable bit
  5939                           ;	PWRT = OFF, PWRT disabled
  5940                           ;	Brown-out Reset Enable bits
  5941                           ;	BOREN = OFF, Brown-out Reset disabled in hardware and software
  5942                           ;	Brown Out Reset Voltage bits
  5943                           ;	BORV = 1, 
  5944   300002                     	org	3145730
  5945   300002  09                 	db	9
  5946                           
  5947                           ;Config register CONFIG2H @ 0x300003
  5948                           ;	Watchdog Timer Enable bit
  5949                           ;	WDT = OFF, WDT disabled (control is placed on the SWDTEN bit)
  5950                           ;	Watchdog Timer Postscale Select bits
  5951                           ;	WDTPS = 32768, 1:32768
  5952   300003                     	org	3145731
  5953   300003  1E                 	db	30
  5954                           
  5955                           ; Padding undefined space
  5956   300004                     	org	3145732
  5957   300004  FF                 	db	255
  5958                           
  5959                           ;Config register CONFIG3H @ 0x300005
  5960                           ;	CCP2 MUX bit
  5961                           ;	CCP2MX = PORTC, CCP2 input/output is multiplexed with RC1
  5962                           ;	PORTB A/D Enable bit
  5963                           ;	PBADEN = OFF, PORTB<4:0> pins are configured as digital I/O on Reset
  5964                           ;	Low-Power Timer1 Oscillator Enable bit
  5965                           ;	LPT1OSC = OFF, Timer1 configured for higher power operation
  5966                           ;	MCLR Pin Enable bit
  5967                           ;	MCLRE = ON, MCLR pin enabled; RE3 input pin disabled
  5968   300005                     	org	3145733
  5969   300005  81                 	db	129
  5970                           
  5971                           ;Config register CONFIG4L @ 0x300006
  5972                           ;	Stack Full/Underflow Reset Enable bit
  5973                           ;	STVREN = ON, Stack full/underflow will cause Reset
  5974                           ;	Single-Supply ICSP Enable bit
  5975                           ;	LVP = OFF, Single-Supply ICSP disabled
  5976                           ;	Extended Instruction Set Enable bit
  5977                           ;	XINST = OFF, Instruction set extension and Indexed Addressing mode disabled (Legacy mo
      +                          de)
  5978                           ;	Background Debugger Enable bit
  5979                           ;	DEBUG = 0x1, unprogrammed default
  5980   300006                     	org	3145734
  5981   300006  81                 	db	129
  5982                           
  5983                           ; Padding undefined space
  5984   300007                     	org	3145735
  5985   300007  FF                 	db	255
  5986                           
  5987                           ;Config register CONFIG5L @ 0x300008
  5988                           ;	Code Protection bit
  5989                           ;	CP0 = OFF, Block 0 (000800-003FFFh) not code-protected
  5990                           ;	Code Protection bit
  5991                           ;	CP1 = OFF, Block 1 (004000-007FFFh) not code-protected
  5992                           ;	Code Protection bit
  5993                           ;	CP2 = OFF, Block 2 (008000-00BFFFh) not code-protected
  5994                           ;	Code Protection bit
  5995                           ;	CP3 = OFF, Block 3 (00C000-00FFFFh) not code-protected
  5996   300008                     	org	3145736
  5997   300008  0F                 	db	15
  5998                           
  5999                           ;Config register CONFIG5H @ 0x300009
  6000                           ;	Boot Block Code Protection bit
  6001                           ;	CPB = OFF, Boot block (000000-0007FFh) not code-protected
  6002                           ;	Data EEPROM Code Protection bit
  6003                           ;	CPD = OFF, Data EEPROM not code-protected
  6004   300009                     	org	3145737
  6005   300009  C0                 	db	192
  6006                           
  6007                           ;Config register CONFIG6L @ 0x30000A
  6008                           ;	Write Protection bit
  6009                           ;	WRT0 = OFF, Block 0 (000800-003FFFh) not write-protected
  6010                           ;	Write Protection bit
  6011                           ;	WRT1 = OFF, Block 1 (004000-007FFFh) not write-protected
  6012                           ;	Write Protection bit
  6013                           ;	WRT2 = OFF, Block 2 (008000-00BFFFh) not write-protected
  6014                           ;	Write Protection bit
  6015                           ;	WRT3 = OFF, Block 3 (00C000-00FFFFh) not write-protected
  6016   30000A                     	org	3145738
  6017   30000A  0F                 	db	15
  6018                           
  6019                           ;Config register CONFIG6H @ 0x30000B
  6020                           ;	Configuration Register Write Protection bit
  6021                           ;	WRTC = OFF, Configuration registers (300000-3000FFh) not write-protected
  6022                           ;	Boot Block Write Protection bit
  6023                           ;	WRTB = OFF, Boot Block (000000-0007FFh) not write-protected
  6024                           ;	Data EEPROM Write Protection bit
  6025                           ;	WRTD = OFF, Data EEPROM not write-protected
  6026   30000B                     	org	3145739
  6027   30000B  E0                 	db	224
  6028                           
  6029                           ;Config register CONFIG7L @ 0x30000C
  6030                           ;	Table Read Protection bit
  6031                           ;	EBTR0 = OFF, Block 0 (000800-003FFFh) not protected from table reads executed in other
      +                           blocks
  6032                           ;	Table Read Protection bit
  6033                           ;	EBTR1 = OFF, Block 1 (004000-007FFFh) not protected from table reads executed in other
      +                           blocks
  6034                           ;	Table Read Protection bit
  6035                           ;	EBTR2 = OFF, Block 2 (008000-00BFFFh) not protected from table reads executed in other
      +                           blocks
  6036                           ;	Table Read Protection bit
  6037                           ;	EBTR3 = OFF, Block 3 (00C000-00FFFFh) not protected from table reads executed in other
      +                           blocks
  6038   30000C                     	org	3145740
  6039   30000C  0F                 	db	15
  6040                           
  6041                           ;Config register CONFIG7H @ 0x30000D
  6042                           ;	Boot Block Table Read Protection bit
  6043                           ;	EBTRB = OFF, Boot Block (000000-0007FFh) not protected from table reads executed in ot
      +                          her blocks
  6044   30000D                     	org	3145741
  6045   30000D  40                 	db	64
  6046                           tosu	equ	0xFFF
  6047                           tosh	equ	0xFFE
  6048                           tosl	equ	0xFFD
  6049                           stkptr	equ	0xFFC
  6050                           pclatu	equ	0xFFB
  6051                           pclath	equ	0xFFA
  6052                           pcl	equ	0xFF9
  6053                           tblptru	equ	0xFF8
  6054                           tblptrh	equ	0xFF7
  6055                           tblptrl	equ	0xFF6
  6056                           tablat	equ	0xFF5
  6057                           prodh	equ	0xFF4
  6058                           prodl	equ	0xFF3
  6059                           indf0	equ	0xFEF
  6060                           postinc0	equ	0xFEE
  6061                           postdec0	equ	0xFED
  6062                           preinc0	equ	0xFEC
  6063                           plusw0	equ	0xFEB
  6064                           fsr0h	equ	0xFEA
  6065                           fsr0l	equ	0xFE9
  6066                           wreg	equ	0xFE8
  6067                           indf1	equ	0xFE7
  6068                           postinc1	equ	0xFE6
  6069                           postdec1	equ	0xFE5
  6070                           preinc1	equ	0xFE4
  6071                           plusw1	equ	0xFE3
  6072                           fsr1h	equ	0xFE2
  6073                           fsr1l	equ	0xFE1
  6074                           bsr	equ	0xFE0
  6075                           indf2	equ	0xFDF
  6076                           postinc2	equ	0xFDE
  6077                           postdec2	equ	0xFDD
  6078                           preinc2	equ	0xFDC
  6079                           plusw2	equ	0xFDB
  6080                           fsr2h	equ	0xFDA
  6081                           fsr2l	equ	0xFD9
  6082                           status	equ	0xFD8

Data Sizes:
    Strings     68
    Constant    17
    Data        66
    BSS         72
    Persistent  0
    Stack       0

Auto Spaces:
    Space          Size  Autos    Used
    COMRAM          126     53     120
    BANK0           128      5      76
    BANK1           256      0       0
    BANK2           256      0       0
    BANK3           256      0       0
    BANK4           256      0       0
    BANK5           256      0       0
    BANK6           256      0       0
    BANK7           256      0       0
    BANK8           256      0       0
    BANK9           256      0       0
    BANK10          256      0       0
    BANK11          256      0       0
    BANK12          256      0       0
    BANK13          256      0       0
    BANK14          256      0       0
    BANK15          128      0       0

Pointer List with Targets:

    convert_byte_to_string@str	PTR unsigned char  size(1) Largest target is 4
		 -> Set_Time@display_value(COMRAM[4]), 

    delay$Timer0_InterruptHandler	PTR FTN()void  size(2) Largest target is 1
		 -> TMR0_ISR(), 

    f$.$buffer	PTR unsigned char  size(2) Largest target is 0

    f$.$source	PTR const unsigned char  size(2) Largest target is 0

    fputc@fp	PTR struct _IO_FILE size(1) Largest target is 12
		 -> sprintf@f(COMRAM[12]), 

    fputc@fp$.$buffer	PTR unsigned char  size(2) Largest target is 0

    fputc@fp$.$source	PTR const unsigned char  size(2) Largest target is 0

    gpio_pin_direction_intialize@_pin_config	PTR const struct . size(1) Largest target is 8
		 -> clock(COMRAM[5]), clock$segment_pins(COMRAM[4]), keypad(COMRAM[8]), keypad$columns_pins(COMRAM[4]), 
		 -> keypad$rows_pins(COMRAM[4]), lcd(COMRAM[6]), lcd$lcd_data(COMRAM[4]), Line_H1(COMRAM[1]), 
		 -> Line_H2(COMRAM[1]), Line_M1(COMRAM[1]), Line_M2(COMRAM[1]), Line_S1(COMRAM[1]), 
		 -> Line_S2(COMRAM[1]), 

    gpio_pin_intialize@_pin_config	PTR const struct . size(1) Largest target is 6
		 -> lcd(COMRAM[6]), lcd$lcd_data(COMRAM[4]), 

    gpio_pin_Read_logic@_pin_config	PTR const struct . size(1) Largest target is 8
		 -> keypad(COMRAM[8]), keypad$columns_pins(COMRAM[4]), 

    gpio_pin_Read_logic@logic	PTR enum E2980 size(1) Largest target is 1
		 -> keypad_get_value@col_val(COMRAM[1]), 

    gpio_pin_Write_logic@_pin_config	PTR const struct . size(1) Largest target is 8
		 -> clock(COMRAM[5]), clock$segment_pins(COMRAM[4]), keypad(COMRAM[8]), keypad$rows_pins(COMRAM[4]), 
		 -> lcd(COMRAM[6]), lcd$lcd_data(COMRAM[4]), 

    INT0_InterruptHandler	PTR FTN()void  size(2) Largest target is 1
		 -> NULL(), 

    INT1_InterruptHandler	PTR FTN()void  size(2) Largest target is 1
		 -> NULL(), 

    INT2_InterruptHandler	PTR FTN()void  size(2) Largest target is 1
		 -> NULL(), 

    Interrupt_INTx_ClearFlag@int_obj$EXT_InterruptHandeler	PTR FTN()void  size(2) Largest target is 0

    Interrupt_INTx_Disable@int_obj$EXT_InterruptHandeler	PTR FTN()void  size(2) Largest target is 0

    Interrupt_INTx_Edge_Init@int_obj$EXT_InterruptHandeler	PTR FTN()void  size(2) Largest target is 0

    Interrupt_INTx_Enable@int_obj$EXT_InterruptHandeler	PTR FTN()void  size(2) Largest target is 0

    Interrupt_INTx_Pin_Init@int_obj$EXT_InterruptHandeler	PTR FTN()void  size(2) Largest target is 0

    keypad_get_value@keypad_obj	PTR const struct . size(1) Largest target is 8
		 -> keypad(COMRAM[8]), 

    keypad_get_value@value	PTR unsigned char  size(1) Largest target is 1
		 -> keypad_value(COMRAM[1]), Set_Time@L_value(COMRAM[1]), 

    keypad_intialize@keypad_obj	PTR const struct . size(1) Largest target is 8
		 -> keypad(COMRAM[8]), 

    lat_registers	PTR volatile unsigned char [5] size(2) Largest target is 1
		 -> LATA(BITBIGSFRlllll[1]), LATB(BITBIGSFRllllh[1]), LATC(BITBIGSFRllllh[1]), LATD(BITBIGSFRllllh[1]), 
		 -> LATE(BITBIGSFRllllh[1]), 

    lcd_4bit_intialize@lcd	PTR const struct . size(1) Largest target is 6
		 -> lcd(COMRAM[6]), 

    lcd_4bit_send_command@lcd	PTR const struct . size(1) Largest target is 6
		 -> lcd(COMRAM[6]), 

    lcd_4bit_send_data@lcd	PTR const struct . size(1) Largest target is 6
		 -> lcd(COMRAM[6]), 

    lcd_4bit_send_string@lcd	PTR const struct . size(1) Largest target is 6
		 -> lcd(COMRAM[6]), 

    lcd_4bit_send_string@str	PTR unsigned char  size(2) Largest target is 13
		 -> Set_Time@display_value(COMRAM[4]), STR_1(CODE[8]), STR_2(CODE[11]), STR_3(CODE[9]), 
		 -> STR_4(CODE[11]), STR_5(CODE[13]), STR_6(CODE[13]), 

    lcd_4bit_send_string_pos@lcd	PTR const struct . size(1) Largest target is 6
		 -> lcd(COMRAM[6]), 

    lcd_4bit_send_string_pos@str	PTR unsigned char  size(2) Largest target is 13
		 -> Set_Time@display_value(COMRAM[4]), STR_1(CODE[8]), STR_2(CODE[11]), STR_3(CODE[9]), 
		 -> STR_4(CODE[11]), STR_5(CODE[13]), STR_6(CODE[13]), 

    memset@dest	PTR void  size(1) Largest target is 4
		 -> Set_Time@display_value(COMRAM[4]), 

    memset@p	PTR unsigned char  size(1) Largest target is 4
		 -> Set_Time@display_value(COMRAM[4]), 

    port_registers	PTR volatile unsigned char [5] size(2) Largest target is 1
		 -> PORTA(BITBIGSFRlllll[1]), PORTB(BITBIGSFRlllll[1]), PORTC(BITBIGSFRlllll[1]), PORTD(BITBIGSFRlllll[1]), 
		 -> PORTE(BITBIGSFRlllll[1]), 

    RB4_InterruptHandler	PTR FTN()void  size(2) Largest target is 1
		 -> NULL(), 

    RB5_InterruptHandler	PTR FTN()void  size(2) Largest target is 1
		 -> NULL(), 

    RB6_InterruptHandler	PTR FTN()void  size(2) Largest target is 1
		 -> NULL(), 

    RB7_InterruptHandler	PTR FTN()void  size(2) Largest target is 1
		 -> NULL(), 

    S1582$Timer1_InterruptHandler	PTR FTN()void  size(2) Largest target is 0

    S1772$Timer2_InterruptHandler	PTR FTN()void  size(2) Largest target is 0

    S1906$Timer3_InterruptHandler	PTR FTN()void  size(2) Largest target is 0

    S2514$buffer	PTR unsigned char  size(2) Largest target is 0

    S2514$source	PTR const unsigned char  size(2) Largest target is 0

    S79$Timer0_InterruptHandler	PTR FTN()void  size(2) Largest target is 1
		 -> TMR0_ISR(), 

    S944$EXT_InterruptHandeler	PTR FTN()void  size(2) Largest target is 0

    segment_intialize@seg	PTR const struct . size(1) Largest target is 5
		 -> clock(COMRAM[5]), 

    segment_write_number@seg	PTR const struct . size(1) Largest target is 5
		 -> clock(COMRAM[5]), 

    send_4bit@lcd	PTR const struct . size(1) Largest target is 6
		 -> lcd(COMRAM[6]), 

    send_4bit_enable_signal@lcd	PTR const struct . size(1) Largest target is 6
		 -> lcd(COMRAM[6]), 

    set_cursor_4bit@lcd	PTR const struct . size(1) Largest target is 6
		 -> lcd(COMRAM[6]), 

    SetInterruptHandler@int_obj$EXT_InterruptHandeler	PTR FTN()void  size(2) Largest target is 0

    sp__memset	PTR void  size(1) Largest target is 4
		 -> Set_Time@display_value(COMRAM[4]), 

    sprintf@ap	PTR void [1] size(1) Largest target is 2
		 -> ?_sprintf(COMRAM[2]), 

    sprintf@fmt	PTR const unsigned char  size(1) Largest target is 3
		 -> STR_7(CODE[3]), STR_8(CODE[3]), STR_9(CODE[3]), 

    sprintf@s	PTR unsigned char  size(1) Largest target is 4
		 -> Set_Time@display_value(COMRAM[4]), 

    Timer0_DeInit@obj	PTR const struct . size(1) Largest target is 9
		 -> delay(BANK0[9]), 

    Timer0_Init@obj	PTR const struct . size(1) Largest target is 9
		 -> delay(BANK0[9]), 

    Timer0_Init@obj$Timer0_InterruptHandler	PTR FTN()void  size(2) Largest target is 1
		 -> TMR0_ISR(), 

    Timer0_InterruptHandler	PTR FTN()void  size(2) Largest target is 1
		 -> TMR0_ISR(), NULL(), 

    TMR1_Init@obj$Timer1_InterruptHandler	PTR FTN()void  size(2) Largest target is 0

    TMR1_InterruptHandler	PTR FTN()void  size(2) Largest target is 1
		 -> NULL(), 

    TMR2_Init@obj$Timer2_InterruptHandler	PTR FTN()void  size(2) Largest target is 0

    TMR2_InterruptHandler	PTR FTN()void  size(2) Largest target is 1
		 -> NULL(), 

    TMR3_Init@obj$Timer3_InterruptHandler	PTR FTN()void  size(2) Largest target is 0

    TMR3_InterruptHandler	PTR FTN()void  size(2) Largest target is 1
		 -> NULL(), 

    tris_registers	PTR volatile unsigned char [5] size(2) Largest target is 1
		 -> TRISA(BITBIGSFRlllll[1]), TRISB(BITBIGSFRlllhl[1]), TRISC(BITBIGSFRlllhl[1]), TRISD(BITBIGSFRlllhl[1]), 
		 -> TRISE(BITBIGSFRlllhl[1]), 

    vfpfcnvrt@ap	PTR PTR void  size(1) Largest target is 1
		 -> sprintf@ap(COMRAM[1]), 

    vfpfcnvrt@cp	PTR unsigned char  size(1) Largest target is 3
		 -> STR_7(CODE[3]), STR_8(CODE[3]), STR_9(CODE[3]), 

    vfpfcnvrt@fmt	PTR PTR unsigned char  size(1) Largest target is 1
		 -> vfprintf@cfmt(COMRAM[1]), 

    vfpfcnvrt@fp	PTR struct _IO_FILE size(1) Largest target is 12
		 -> sprintf@f(COMRAM[12]), 

    vfprintf@ap	PTR PTR void  size(1) Largest target is 1
		 -> sprintf@ap(COMRAM[1]), 

    vfprintf@cfmt	PTR unsigned char  size(1) Largest target is 3
		 -> STR_7(CODE[3]), STR_8(CODE[3]), STR_9(CODE[3]), 

    vfprintf@fmt	PTR const unsigned char  size(1) Largest target is 3
		 -> STR_7(CODE[3]), STR_8(CODE[3]), STR_9(CODE[3]), 

    vfprintf@fp	PTR struct _IO_FILE size(1) Largest target is 12
		 -> sprintf@f(COMRAM[12]), 


Critical Paths under _main in COMRAM

    _welcome_message->_lcd_4bit_send_string_pos
    _intialization->_lcd_4bit_intialize
    _segment_intialize->_gpio_pin_direction_intialize
    _lcd_4bit_intialize->_lcd_4bit_send_command
    _gpio_pin_intialize->_gpio_pin_Write_logic
    _keypad_intialize->_gpio_pin_direction_intialize
    _clock_setting->_Set_Time
    _Set_Time->_convert_byte_to_string
    _write_clock->_segment_write_number
    _segment_write_number->___awdiv
    _segment_write_number->_gpio_pin_Write_logic
    _lcd_4bit_send_string_pos->_set_cursor_4bit
    _set_cursor_4bit->_lcd_4bit_send_command
    _lcd_4bit_send_command->_send_4bit
    _lcd_4bit_send_string->_lcd_4bit_send_data
    _lcd_4bit_send_data->_send_4bit
    _send_4bit_enable_signal->_gpio_pin_Write_logic
    _send_4bit->_gpio_pin_Write_logic
    _keypad_get_value->_gpio_pin_Write_logic
    _convert_byte_to_string->_sprintf
    _sprintf->_vfprintf
    _vfprintf->_vfpfcnvrt
    _vfpfcnvrt->_abs
    _abs->___awmod

Critical Paths under _InterruptManger in COMRAM

    None.

Critical Paths under _main in BANK0

    None.

Critical Paths under _InterruptManger in BANK0

    None.

Critical Paths under _main in BANK1

    None.

Critical Paths under _InterruptManger in BANK1

    None.

Critical Paths under _main in BANK2

    None.

Critical Paths under _InterruptManger in BANK2

    None.

Critical Paths under _main in BANK3

    None.

Critical Paths under _InterruptManger in BANK3

    None.

Critical Paths under _main in BANK4

    None.

Critical Paths under _InterruptManger in BANK4

    None.

Critical Paths under _main in BANK5

    None.

Critical Paths under _InterruptManger in BANK5

    None.

Critical Paths under _main in BANK6

    None.

Critical Paths under _InterruptManger in BANK6

    None.

Critical Paths under _main in BANK7

    None.

Critical Paths under _InterruptManger in BANK7

    None.

Critical Paths under _main in BANK8

    None.

Critical Paths under _InterruptManger in BANK8

    None.

Critical Paths under _main in BANK9

    None.

Critical Paths under _InterruptManger in BANK9

    None.

Critical Paths under _main in BANK10

    None.

Critical Paths under _InterruptManger in BANK10

    None.

Critical Paths under _main in BANK11

    None.

Critical Paths under _InterruptManger in BANK11

    None.

Critical Paths under _main in BANK12

    None.

Critical Paths under _InterruptManger in BANK12

    None.

Critical Paths under _main in BANK13

    None.

Critical Paths under _InterruptManger in BANK13

    None.

Critical Paths under _main in BANK14

    None.

Critical Paths under _InterruptManger in BANK14

    None.

Critical Paths under _main in BANK15

    None.

Critical Paths under _InterruptManger in BANK15

    None.

Call Graph Tables:

 ---------------------------------------------------------------------------------
 (Depth) Function   	        Calls       Base Space   Used Autos Params    Refs
 ---------------------------------------------------------------------------------
 (0) _main                                                 5     0      5  172971
                                              0 BANK0      5     0      5
                      _clock_setting
                      _intialization
                    _welcome_message
                        _write_clock
 ---------------------------------------------------------------------------------
 (1) _welcome_message                                      2     2      0   44299
                                             24 COMRAM     2     2      0
              _lcd_4bit_send_command
           _lcd_4bit_send_string_pos
 ---------------------------------------------------------------------------------
 (1) _intialization                                        0     0      0   24557
                        _Timer0_Init
       _gpio_pin_direction_intialize
                   _keypad_intialize
                 _lcd_4bit_intialize
                  _segment_intialize
 ---------------------------------------------------------------------------------
 (2) _segment_intialize                                    2     1      1    1441
                                              9 COMRAM     2     1      1
       _gpio_pin_direction_intialize
 ---------------------------------------------------------------------------------
 (2) _lcd_4bit_intialize                                   3     2      1   19872
                                             14 COMRAM     3     2      1
                 _gpio_pin_intialize
              _lcd_4bit_send_command
 ---------------------------------------------------------------------------------
 (3) _gpio_pin_intialize                                   3     2      1    5182
                                             10 COMRAM     3     2      1
               _gpio_pin_Write_logic
       _gpio_pin_direction_intialize
 ---------------------------------------------------------------------------------
 (2) _keypad_intialize                                     4     3      1    1533
                                              9 COMRAM     4     3      1
       _gpio_pin_direction_intialize
 ---------------------------------------------------------------------------------
 (3) _gpio_pin_direction_intialize                         7     6      1    1243
                                              2 COMRAM     7     6      1
 ---------------------------------------------------------------------------------
 (1) _clock_setting                                        0     0      0   97280
                           _Set_Time
                   _keypad_get_value
           _lcd_4bit_send_string_pos
 ---------------------------------------------------------------------------------
 (2) _Set_Time                                             7     7      0   62508
                                             46 COMRAM     7     7      0
                      _Timer0_DeInit
                        _Timer0_Init
             _convert_byte_to_string
                   _keypad_get_value
              _lcd_4bit_send_command
           _lcd_4bit_send_string_pos
                        _write_clock
 ---------------------------------------------------------------------------------
 (1) _write_clock                                          1     1      0    6835
                                             13 COMRAM     1     1      0
                            ___awdiv
                            ___awmod
              _gpio_port_Write_logic
               _segment_write_number
 ---------------------------------------------------------------------------------
 (2) _segment_write_number                                 3     1      2    4493
                                             10 COMRAM     3     1      2
                            ___awdiv (ARG)
                            ___awmod (ARG)
               _gpio_pin_Write_logic
 ---------------------------------------------------------------------------------
 (2) _gpio_port_Write_logic                                5     4      1     530
                                              2 COMRAM     4     3      1
 ---------------------------------------------------------------------------------
 (2) _lcd_4bit_send_string_pos                             6     1      5   29982
                                             19 COMRAM     5     0      5
               _lcd_4bit_send_string
                    _set_cursor_4bit
 ---------------------------------------------------------------------------------
 (3) _set_cursor_4bit                                      5     2      3   14972
                                             14 COMRAM     5     2      3
              _lcd_4bit_send_command
 ---------------------------------------------------------------------------------
 (4) _lcd_4bit_send_command                                3     1      2   14317
                                             12 COMRAM     2     0      2
               _gpio_pin_Write_logic
                          _send_4bit
            _send_4bit_enable_signal
 ---------------------------------------------------------------------------------
 (3) _lcd_4bit_send_string                                 4     1      3   12134
                                             14 COMRAM     3     0      3
                 _lcd_4bit_send_data
 ---------------------------------------------------------------------------------
 (4) _lcd_4bit_send_data                                   3     1      2   11885
                                             12 COMRAM     2     0      2
               _gpio_pin_Write_logic
                          _send_4bit
            _send_4bit_enable_signal
 ---------------------------------------------------------------------------------
 (5) _send_4bit_enable_signal                              1     0      1    3719
                                             10 COMRAM     1     0      1
               _gpio_pin_Write_logic
 ---------------------------------------------------------------------------------
 (5) _send_4bit                                            2     0      2    4155
                                             10 COMRAM     2     0      2
               _gpio_pin_Write_logic
 ---------------------------------------------------------------------------------
 (2) _keypad_get_value                                     8     6      2    4790
                                             10 COMRAM     7     5      2
                _gpio_pin_Read_logic
               _gpio_pin_Write_logic
 ---------------------------------------------------------------------------------
 (3) _gpio_pin_Write_logic                                 8     6      2    3371
                                              2 COMRAM     8     6      2
 ---------------------------------------------------------------------------------
 (3) _gpio_pin_Read_logic                                  7     5      2     352
                                              2 COMRAM     7     5      2
 ---------------------------------------------------------------------------------
 (3) _convert_byte_to_string                               3     2      1    5601
                                             44 COMRAM     2     1      1
                             _memset
                            _sprintf
 ---------------------------------------------------------------------------------
 (4) _sprintf                                             19    15      4    4503
                                             27 COMRAM    17    13      4
                           _vfprintf
 ---------------------------------------------------------------------------------
 (5) _vfprintf                                             4     1      3    3848
                                             23 COMRAM     4     1      3
                          _vfpfcnvrt
 ---------------------------------------------------------------------------------
 (6) _vfpfcnvrt                                           11     8      3    3498
                                             12 COMRAM    11     8      3
                            ___awdiv
                            ___awmod
                                _abs
                              _fputc
 ---------------------------------------------------------------------------------
 (7) _fputc                                                8     5      3     782
                                              2 COMRAM     8     5      3
                              _putch
 ---------------------------------------------------------------------------------
 (8) _putch                                                1     1      0       0
 ---------------------------------------------------------------------------------
 (7) _abs                                                  4     2      2     142
                                              8 COMRAM     4     2      2
                            ___awmod (ARG)
 ---------------------------------------------------------------------------------
 (2) ___awmod                                              6     2      4     904
                                              2 COMRAM     6     2      4
 ---------------------------------------------------------------------------------
 (2) ___awdiv                                              8     4      4     908
                                              2 COMRAM     8     4      4
 ---------------------------------------------------------------------------------
 (4) _memset                                               6     1      5     780
                                              2 COMRAM     6     1      5
 ---------------------------------------------------------------------------------
 (2) _Timer0_Init                                          4     3      1     468
                                              2 COMRAM     3     2      1
 ---------------------------------------------------------------------------------
 (3) _Timer0_DeInit                                        2     1      1     106
                                              2 COMRAM     1     0      1
 ---------------------------------------------------------------------------------
 Estimated maximum stack depth 8
 ---------------------------------------------------------------------------------
 (Depth) Function   	        Calls       Base Space   Used Autos Params    Refs
 ---------------------------------------------------------------------------------
 (9) _InterruptManger                                      2     2      0       0
                                              0 COMRAM     2     2      0
                           _INT0_ISR
                           _INT1_ISR
                           _INT2_ISR
                           _TMR1_ISR
                           _TMR2_ISR
                           _TMR3_ISR
                         _Timer0_ISR
 ---------------------------------------------------------------------------------
 (10) _Timer0_ISR                                          0     0      0       0
                                NULL *
                           _TMR0_ISR *
 ---------------------------------------------------------------------------------
 (11) _TMR0_ISR                                            0     0      0       0
 ---------------------------------------------------------------------------------
 (11) NULL(Fake)                                           0     0      0       0
 ---------------------------------------------------------------------------------
 (10) _TMR3_ISR                                            0     0      0       0
 ---------------------------------------------------------------------------------
 (10) _TMR2_ISR                                            0     0      0       0
 ---------------------------------------------------------------------------------
 (10) _TMR1_ISR                                            0     0      0       0
 ---------------------------------------------------------------------------------
 (10) _INT2_ISR                                            0     0      0       0
 ---------------------------------------------------------------------------------
 (10) _INT1_ISR                                            0     0      0       0
 ---------------------------------------------------------------------------------
 (10) _INT0_ISR                                            0     0      0       0
 ---------------------------------------------------------------------------------
 Estimated maximum stack depth 11
 ---------------------------------------------------------------------------------

 Call Graph Graphs:

 _main (ROOT)
   _clock_setting
     _Set_Time
       _Timer0_DeInit
       _Timer0_Init
       _convert_byte_to_string
         _memset
         _sprintf
           _vfprintf
             _vfpfcnvrt
               ___awdiv
               ___awmod
               _abs
                 ___awmod (ARG)
               _fputc
                 _putch
       _keypad_get_value
         _gpio_pin_Read_logic
         _gpio_pin_Write_logic
       _lcd_4bit_send_command
         _gpio_pin_Write_logic
         _send_4bit
           _gpio_pin_Write_logic
         _send_4bit_enable_signal
           _gpio_pin_Write_logic
       _lcd_4bit_send_string_pos
         _lcd_4bit_send_string
           _lcd_4bit_send_data
             _gpio_pin_Write_logic
             _send_4bit
             _send_4bit_enable_signal
         _set_cursor_4bit
           _lcd_4bit_send_command
       _write_clock
         ___awdiv
         ___awmod
         _gpio_port_Write_logic
         _segment_write_number
           ___awdiv (ARG)
           ___awmod (ARG)
           _gpio_pin_Write_logic (ARG)
     _keypad_get_value
     _lcd_4bit_send_string_pos
   _intialization
     _Timer0_Init
     _gpio_pin_direction_intialize
     _keypad_intialize
       _gpio_pin_direction_intialize
     _lcd_4bit_intialize
       _gpio_pin_intialize
         _gpio_pin_Write_logic
         _gpio_pin_direction_intialize
       _lcd_4bit_send_command
     _segment_intialize
       _gpio_pin_direction_intialize
   _welcome_message
     _lcd_4bit_send_command
     _lcd_4bit_send_string_pos
   _write_clock

 _InterruptManger (ROOT)
   _INT0_ISR
   _INT1_ISR
   _INT2_ISR
   _TMR1_ISR
   _TMR2_ISR
   _TMR3_ISR
   _Timer0_ISR
     NULL(Fake) *
     _TMR0_ISR *

 Address spaces:
Name               Size   Autos  Total    Cost      Usage
BIGRAM             F7F      0       0      48        0.0%
EEDATA             400      0       0       0        0.0%
BITBANK14          100      0       0      32        0.0%
BANK14             100      0       0      33        0.0%
BITBANK13          100      0       0      30        0.0%
BANK13             100      0       0      31        0.0%
BITBANK12          100      0       0      28        0.0%
BANK12             100      0       0      29        0.0%
BITBANK11          100      0       0      26        0.0%
BANK11             100      0       0      27        0.0%
BITBANK10          100      0       0      24        0.0%
BANK10             100      0       0      25        0.0%
BITBANK9           100      0       0      22        0.0%
BANK9              100      0       0      23        0.0%
BITBANK8           100      0       0      20        0.0%
BANK8              100      0       0      21        0.0%
BITBANK7           100      0       0      18        0.0%
BANK7              100      0       0      19        0.0%
BITBANK6           100      0       0      16        0.0%
BANK6              100      0       0      17        0.0%
BITBANK5           100      0       0      14        0.0%
BANK5              100      0       0      15        0.0%
BITBANK4           100      0       0      12        0.0%
BANK4              100      0       0      13        0.0%
BITBANK3           100      0       0      10        0.0%
BANK3              100      0       0      11        0.0%
BITBANK2           100      0       0       8        0.0%
BANK2              100      0       0       9        0.0%
BITBANK1           100      0       0       6        0.0%
BANK1              100      0       0       7        0.0%
BITBANK15           80      0       0      34        0.0%
BANK15              80      0       0      35        0.0%
BITBANK0            80      0       0       4        0.0%
BANK0               80      5      4C       5       59.4%
BITCOMRAM           7E      0       0       0        0.0%
COMRAM              7E     35      78       1       95.2%
BITBIGSFRlhlhh      18      0       0      37        0.0%
BITBIGSFRlhllll     16      0       0      40        0.0%
BITBIGSFRh           D      0       0      36        0.0%
BITBIGSFRlllhl       6      0       0      44        0.0%
BITBIGSFRlhllll      6      0       0      41        0.0%
BITBIGSFRlhllhh      5      0       0      38        0.0%
BITBIGSFRlllhhh      4      0       0      42        0.0%
BITBIGSFRllllh       4      0       0      45        0.0%
BITBIGSFRlllll       4      0       0      46        0.0%
BITBIGSFRlhlllh      1      0       0      39        0.0%
BITBIGSFRlllhhl      1      0       0      43        0.0%
BIGSFR               0      0       0     200        0.0%
BITSFR               0      0       0     200        0.0%
SFR                  0      0       0     200        0.0%
STACK                0      0       0       2        0.0%
NULL                 0      0       0       0        0.0%
ABS                  0      0      C4      47        0.0%
DATA                 0      0      C4       3        0.0%
CODE                 0      0       0       0        0.0%


Microchip Technology PIC18 Macro Assembler V2.45 build 20230818022343 
Symbol Table                                                                                   Tue Jun 18 17:57:32 2024

                           ___awdiv@sign 0008               keypad_get_value@keypad_obj 000B  
              gpio_pin_Write_logic@logic 0004                          ??_clock_setting 0036  
                                    l122 2338                                      l133 176E  
                                    l223 2384                                      l119 22EA  
                                    l304 24A0                                      l320 2666  
                                    l241 2068                                      l153 12FC  
                                    l138 2244                                      l218 1D48  
                                    l228 23D0                                      l172 218E  
                                    l317 241C                                      l246 254E  
                                    l343 1FF0                                      l184 1C66  
                                    l352 245E                                      l425 1B82  
                                    l437 19A4                                      l357 20CC  
                                    l711 1628                                      l480 2518  
                                    l449 1894                                      l714 2698  
                                    l706 1584                                      l716 269C  
                                    l708 15D4                                      l497 2298  
                                    l693 14D2               send_4bit_enable_signal@lcd 000B  
                                    _abs 25BA                                      _lcd 0069  
                                    _min 005F                                      _sec 0060  
                           ___awmod@sign 0008                                      tosl 0FFD  
                                    wreg 0FE8                        _segment_intialize 241E  
                     ?_segment_intialize 000A                                     l1110 1E0C  
                                   l1123 1EBC                                     ?_abs 0009  
                                   l3201 1D5C                                     l1601 14BC  
                                   l3211 1D82                                     l3203 1D64  
                                   l1611 25D4                                     l3221 1DBA  
                                   l3213 1D8A                                     l3205 1D68  
                                   l3301 265A                                     l1614 25EC  
                                   l3231 1DE6                                     l3223 1DC0  
                                   l3215 1D9C                                     l3207 1D76  
                                   l3311 133A                                     l3303 12FE  
                                   l1607 24E0                                     l3225 1DD6  
                                   l3217 1DA4                                     l3233 1DEC  
                                   l3209 1D7E                                     l3241 1E0E  
                                   l3321 13A2                                     l3313 1344  
                                   l3305 1322                                     l3401 24E4  
                                   l1626 1F66                                     l3235 1DFC  
                                   l3227 1DDE                                     l3219 1DAC  
                                   l3251 1E3A                                     l3243 1E12  
                                   l3331 1428                                     l3323 13BA  
                                   l3315 1362                                     l3307 132A  
                                   l1563 25B8                                     l3403 24E4  
                                   l3411 206A                                     l4203 187C  
                                   l1556 261C                                     l3237 1E04  
                                   l3229 1DE0                                     l3261 1E72  
                                   l3253 1E42                                     l3245 1E20  
                                   l1637 26E2                                     l3333 1438  
                                   l3341 1476                                     l3325 13EA  
                                   l3317 1380                                     l3309 1336  
                                   l3421 1AB0                                     l3181 18D2  
                                   l4205 1FCA                                     l3405 24F4  
                                   l3413 207A                                     l3501 1760  
                                   l3511 14F2                                     l3503 14BE  
                                   l3271 1EAC                                     l3263 1E88  
                                   l3255 1E54                                     l3247 1E28  
                                   l3335 1448                                     l3327 1406  
                                   l3319 1398                                     l3343 148C  
                                   l3423 1AD0                                     l4207 198C  
                                   l3183 1928                                     l3175 1896  
                                   l3431 1F68                                     l3407 24F8  
                                   l3415 207E                                     l3521 1546  
                                   l3513 150A                                     l3505 14CE  
                                   l3273 1EB4                                     l3265 1E90  
                                   l3257 1E5C                                     l3249 1E2C  
                                   l3281 1EDE                                     l3337 145A  
                                   l3329 1418                                     l3425 1AD8  
                                   l3177 18AA                                     l3361 2386  
                                   l3353 233A                                     l3433 1F6E  
                                   l3441 1FB6                                     l3523 1548  
                                   l3531 1584                                     l3515 150C  
                                   l3507 14D4                                     l3267 1E96  
                                   l3259 1E64                                     l3291 25BA  
                                   l3283 1EE8                                     l3339 1474  
                                   l3347 1498                                     l3371 24AA  
                                   l3427 1B80                                     l3419 1A9C  
                                   l3187 1978                                     l3179 18CA  
                                   l3611 1C54                                     l3363 2396  
                                   l3451 2006                                     l3355 234A  
                                   l3435 1F80                                     l3541 15DC  
                                   l3533 159C                                     l3525 1560  
                                   l3517 1526                                     l3509 14EC  
                                   l3461 2600                                     l3197 1D4A  
                                   l3269 1E9C                                     l3293 25C8  
                                   l3285 1F04                                     l3277 1EBE  
                                   l3373 24BA                                     l3621 2462  
                                   l3189 19A2                                     l3613 1C56  
                                   l3605 1C38                                     l3365 239A  
                                   l3453 2032                                     l3357 234E  
                                   l3437 1F92                                     l3381 1784  
                                   l3615 2684                                     l3543 15EA  
                                   l3535 159E                                     l3527 1566  
                                   l3519 152C                                     l3463 2602  
                                   l3199 1D4E                                     l3287 1F36  
                                   l3279 1ECE                                     l3375 24D8  
                                   l3471 259E                                     l3623 2472  
                                   l3607 1C42                                     l3295 23D2  
                                   l3455 2036                                     l3447 1FF2  
                                   l3439 1FA4                                     l3391 1852  
                                   l3383 17A4                                     l3631 225A  
                                   l3711 241E                                     l4183 269E  
                                   l3617 2694                                     l3545 1606  
                                   l3537 15BA                                     l3529 157E  
                                   l3457 25EE                                     l3369 24A2  
                                   l3473 25AE                                     l3465 2586  
                                   l3625 2476                                     l3609 1C44  
                                   l3297 2646                                     l3449 2002  
                                   l3553 251A                                     l3481 1660  
                                   l3801 1260                                     l3721 105A  
                                   l3385 17AC                                     l3393 1892  
                                   l3705 2170                                     l3633 227A  
                                   l3641 1C68                                     l3713 242E  
                                   l4185 26A2                                     l3547 1614  
                                   l3539 15D2                                     l3459 25F6  
                                   l3467 258E                                     l3627 248E  
                                   l3619 2462                                     l3563 1B84  
                                   l3299 2652                                     l3555 252A  
                                   l3491 16D6                                     l3483 166A  
                                   l3811 12A6                                     l3803 126C  
                                   l3731 1072                                     l3723 1062  
                                   l3387 1802                                     l3379 1770  
                                   l3707 217C                                     l3635 2282  
                                   l3643 1C78                                     l3715 2432  
                                   l4187 26A6                                     l3549 1626  
                                   l3469 2596                                     l3581 1BC0  
                                   l3565 1BA4                                     l3557 252E  
                                   l3493 16F4                                     l3485 1688  
                                   l3477 162A                                     l3821 12DE  
                                   l3813 12A8                                     l3805 127C  
                                   l3741 10C8                                     l3733 107E  
                                   l3725 1066                                     l3709 217E  
                                   l3637 2296                                     l3629 2246  
                                   l3661 1CC8                                     l3653 1CA8  
                                   l3645 1C7C                                     l4189 26AA  
                                   l3583 1BCE                                     l3575 1BBC  
                                   l3567 1BB4                                     l3559 253E  
                                   l3495 172A                                     l3487 16BE  
                                   l3479 1652                                     l3823 12F0  
                                   l3807 1286                                     l3815 12AA  
                                   l3751 110E                                     l3743 10D4  
                                   l3735 108C                                     l3727 106A  
                                   l3719 1058                                     l3671 1D0C  
                                   l3663 1CD4                                     l3655 1CB4  
                                   l3647 1C90                                     l3585 1BD0  
                                   l3569 1BB8                                     l3497 1738  
                                   l3489 16CC                                     l3825 12F4  
                                   l3817 12BC                                     l3809 1290  
                                   l3761 1146                                     l3753 1110  
                                   l3745 10E4                                     l3737 10A8  
                                   l3729 106E                                     l3673 1D18  
                                   l3665 1CEE                                     l3649 1C94  
                                   l3595 1BF2                                     l3587 1BE0  
                                   l3499 1742                                     l3819 12D2  
                                   l3771 1194                                     l3763 1154  
                                   l3747 10EE                                     l3739 10B0  
                                   l3755 1112                                     l3683 2130  
                                   l3675 1D24                                     l3667 1CF4  
                                   l3659 1CBA                                     l3597 1C02  
                                   l3589 1BEE                                     l3781 11DA  
                                   l3773 11A0                                     l3765 1158  
                                   l3757 1124                                     l3749 10F8  
                                   l3693 2150                                     l3685 2148  
                                   l3677 1D30                                     l3669 1D00  
                                   l3861 22EC                                     l3599 1C12  
                                   l3791 1212                                     l3783 11DC  
                                   l3775 11B0                                     l3767 1174  
                                   l3759 113A                                     l3871 2224  
                                   l3695 215A                                     l3687 214C  
                                   l3679 1D3C                                     l3863 2308  
                                   l3793 1220                                     l3777 11BA  
                                   l3769 117C                                     l3785 11DE  
                                   l3873 2230                                     l3697 215C  
                                   l3857 229A                                     l3865 231E  
                                   l3795 1224                                     l3787 11F0  
                                   l3779 11C4                                     l3875 2240  
                                   l3699 216C                                     l3859 22E2  
                                   l3867 232A                                     l3797 1240  
                                   l3789 1206                                     l3869 21EC  
                                   l3799 1248                                     STR_1 104B  
                                   STR_2 1037                                     STR_3 1042  
                                   STR_4 102C                                     STR_5 101F  
                                   STR_6 1012                                     STR_7 1053  
                                   u2000 1E88                                     u2001 1E84  
                                   u2010 1EAC                                     u2011 1EA8  
                                   u2020 1ECE                                     u2100 13B6  
                                   u2021 1ECA                                     u2101 13B0  
                                   u2030 1EDE                                     u2110 13B8  
                                   u2031 1EDA                                     u2040 1F04  
                                   u2120 1418                                     u2200 1784  
                                   u2041 1F00                                     u2121 1414  
                                   u2201 1780                                     u2050 1F36  
                                   u2130 1428                                     u2210 17A4  
                                   u2051 1F32                                     u2131 1424  
                                   u2211 17A0                                     u2060 25C8  
                                   u2140 1438                                     u2061 25C4  
                                   u2141 1434                                     _LATA 0F89  
                                   u2150 1448                                     u2070 1322  
                                   _LATB 0F8A                                     u2151 1444  
                                   u2071 131E                                     _LATC 0F8B  
                                   u2400 1526                                     u2160 1488  
                                   u2080 1362                                     u2304 1B20  
                                   u2320 2002                                     u2240 1868  
                                   u2224 17CA                                     _LATD 0F8C  
                                   u2401 1522                                     u2161 1484  
                                   u2081 135E                                     u2305 1B1C  
                                   u2321 1FFE                                     u2241 1862  
                                   u2225 17C6                                     _LATE 0F8D  
                                   u2410 1546                                     u2090 1380  
                                   u2314 1B74                                     u2330 202C  
                                   u2170 234A                                     u2250 186A  
                                   u2234 1820                                     u2411 1542  
                                   u2091 137C                                     u2315 1B70  
                                   u2171 2346                                     u3107 114C  
                                   u2235 181C                                     u3027 2312  
                                   u2420 1560                                     u2500 1C12  
                                   u2180 2396                                     u2340 2058  
                                   u2260 24F4                                     u2421 155C  
                                   u2501 1C0E                                     u2181 2392  
                                   u2261 24F0                                     u3117 1186  
                                   u3037 2330                                     u2430 157E  
                                   u2190 24D8                                     u2510 1C54  
                                   u2350 2068                                     u2270 207A  
                                   u2431 157A                                     u2191 24D4  
                                   u2511 1C50                                     u2351 2064  
                                   u2271 2076                                     u3207 16FA  
                                   u3127 11FA                                     u3047 1CC0  
                                   u2440 159C                                     u2360 261C  
                                   u2280 1AB0                                     u2520 1C66  
                                   u2600 216C                                     u2441 1598  
                                   u2361 2618                                     u2281 1AAC  
                                   u2521 1C62                                     u2337 2022  
                                   u3217 1730                                     u3137 1218  
                                   u2601 2168                                     u3057 1CDA  
                                   u2530 2694                                     u2450 15D2  
                                   u2370 14CE                                     u2290 1AD0  
                                   u2610 218E                                     u2531 2690  
                                   u2451 15CE                                     u2371 14CA  
                                   u2291 1ACC                                     u2347 204E  
                                   u3227 1766                                     u3147 1252  
                                   u2611 218A                                     u3067 1CF0  
                                   u2380 14EC                                     u1900 1D5C  
                                   u2540 2472                                     u2460 252A  
                                   u2620 242E                                     u2381 14E8  
                                   u1901 1D58                                     u2541 246E  
                                   u3237 2654                                     u2461 2526  
                                   u3157 12C6                                     u3077 1084  
                                   u2621 242A                                     u2390 150A  
                                   u1910 1D76                                     u2470 1BA4  
                                   u2630 10E4                                     u2550 225A  
                                   u2391 1506                                     u1911 1D72  
                                   u2471 1BA0                                     u3167 12E4  
                                   u2631 10E0                                     u3087 10BA  
                                   u2551 2256                                     u1920 1D9C  
                                   u2480 1BB4                                     u2640 1124  
                                   u2720 2240                                     u2560 227A  
                                   u1921 1D98                                     u2481 1BB0  
                                   u3177 1658                                     u3097 112E  
                                   u2641 1120                                     u2721 223C  
                                   u2561 2276                                     u1930 1DBA  
                                   u2490 1BE0                                     u2650 11B0  
                                   u2570 1C78                                     u1931 1DB6  
                                   u2491 1BDC                                     u3187 168E  
                                   u2651 11AC                                     u2571 1C74  
                                   u1940 1DD6                                     u1860 18AA  
                                   u2660 11F0                                     u2580 1CA4  
                                   u1941 1DD2                                     u1861 18A6  
                                   u3197 16C4                                     u2661 11EC  
                                   u2581 1CA0                                     u1950 1DFC  
                                   u1870 18CA                                     u2670 127C  
                                   u2590 2148                                     u1951 1DF8  
                                   u1871 18C6                                     u2671 1278  
                                   u2591 2144                                     u1960 1E20  
                                   u2680 12BC                                     u1961 1E1C  
                                   u2681 12B8                                     u1970 1E3A  
                                   u1971 1E36                                     u1980 1E54  
                                   u1884 18F0                                     u1981 1E50  
                                   u1885 18EC                                     u1990 1E72  
                                   u1894 1946                                     u1991 1E6E  
                                   u1895 1942                                     _TMR2 0FCC  
                   _lcd_4bit_send_string 1FF2                                     abs@a 0009  
                                   _dbuf 00A7                                     _main 269E  
                                   _prec 0038                                     fsr0h 0FEA  
                                   fsr1h 0FE2                                     indf0 0FEF  
                                   fsr2h 0FDA                                     fsr0l 0FE9  
                                   indf1 0FE7                                     indf2 0FDF  
                                   fsr1l 0FE1                                     fsr2l 0FD9  
                                   btemp 0079             keypad_get_value@rows_counter 0010  
                    ??_segment_intialize 000B                                     prodl 0FF3  
                                   start 000E                     _RB7_InterruptHandler 0048  
                           ___param_bank 0000                    _lcd_4bit_send_command 233A  
                                  ??_abs 000B           lcd_4bit_send_string_pos@column 0016  
                  lcd_4bit_intialize@lcd 000F                    lcd_4bit_intialize@ret 0011  
                       __end_of_INT0_ISR 26E2                         __end_of_INT1_ISR 26DE  
                       __end_of_INT2_ISR 26DA                                    ?_main 00C7  
                __end_of_set_cursor_4bit 1FF2                          __end_of___awdiv 1E0E  
                                  _EEADR 0FA9                          __end_of___awmod 1EBE  
                        ___awdiv@divisor 0005                                    i2l130 21EA  
                                  i2l540 26E0                                    i2l544 26DC  
                                  i2l730 2584                                    i2l548 26D8  
                                  i2l824 26D4                                    i2l678 1A90  
                                  i2l786 26CC                                    i2l876 26C0  
                        ___awdiv@counter 0007                             vfpfcnvrt@fmt 000E  
              __end_of_segment_intialize 2460                                    _TMR0H 0FD7  
                                  _TMR1H 0FCF                                    _TMR0L 0FD6  
                                  _TMR1L 0FCE                                    _TMR3H 0FB3  
                                  _TMR3L 0FB2                                    _PORTA 0F80  
                                  _PORTB 0F81                                    _PORTC 0F82  
                                  _PORTD 0F83                                    _PORTE 0F84  
                                  _TRISA 0F92                                    _TRISB 0F93  
                                  _TRISC 0F94                                    _TRISD 0F95  
                                  _TRISE 0F96                              _write_clock 162A  
               __end_of_keypad_get_value 1C68                         __end_of_TMR0_ISR 21EC  
                       __end_of_TMR1_ISR 26CE                         __end_of_TMR2_ISR 26D6  
                       __end_of_TMR3_ISR 26C2                                    _delay 009E  
                                  _clock 006F                                    _flags 0056  
                gpio_pin_Write_logic@ret 000A                                    _fputc 1EBE  
                                  _hours 005E                    __end_of_Timer0_DeInit 269E  
                   segment_intialize@seg 000A                     segment_intialize@ret 000B  
                                  _width 0036                                    _putch 26E2  
                  ?_lcd_4bit_send_string 000F            keypad_get_value@rows_counter2 000F  
                                  pclath 0FFA                                    pclatu 0FFB  
                                  tablat 0FF5                                    ttemp5 007A  
                                  ttemp6 007D                                    ttemp7 0081  
                                  status 0FD8                    Set_Time@display_value 0031  
                                  wtemp8 007A                          __end_of_sprintf 25BA  
               __end_of_keypad_intialize 2190                          __initialization 20CE  
                    _gpio_pin_Read_logic 1A9C                             __end_of_main 26B6  
                keypad_get_value@col_val 000E                            _lat_registers 008A  
                                 ??_main 0036                       set_cursor_4bit@lcd 000F  
                          __activetblptr 0003                         __end_of_Set_Time 12FE  
                     set_cursor_4bit@row 0010                    _TMR3_InterruptHandler 003C  
                   ?_gpio_pin_Read_logic 0003                   send_4bit@_data_command 000C  
                                 ?_fputc 0003                                   _EEADRH 0FAA  
                                 _EEDATA 0FA8                                   _EECON2 0FA7  
                       ___awdiv@dividend 0003                                   ?_putch 0001  
                                 i2l2201 21D4                                   i2l2203 21D6  
                                 i2l2205 21E6                                   i2l2415 26DE  
                                 i2l2423 26D6                                   i2l2191 21AA  
                                 i2l2183 2190                                   i2l2193 21BA  
                                 i2l2185 2192                                   i2l2419 26DA  
                                 i2l2195 21BE                                   i2l2187 21A4  
                                 i2l2197 21C0                                   i2l2189 21A8  
                                 i2l2199 21D0                                   i2l2471 256C  
                                 i2l2463 2550                                   i2l2473 26C2  
                                 i2l2481 26CE                                   i2l2465 2552  
                                 i2l2475 26C4                                   i2l2467 2556  
                                 i2l2477 26C8                                   i2l2485 26B6  
                                 i2l2469 255A                                   i2l2487 26B8  
                                 i2l2489 26BC                                   i2l2921 19DE  
                                 i2l2913 19B0                                   i2l2931 1A10  
                                 i2l2923 19EC                                   i2l2915 19BE  
                                 i2l2941 1A4C                                   i2l2933 1A1E  
                                 i2l2925 19F0                                   i2l2917 19CC  
                                 i2l2951 1A7E                                   i2l2943 1A50  
                                 i2l2935 1A2C                                   i2l2927 19FE  
                                 i2l2919 19D0                                   i2l2953 1A8C  
                                 i2l2945 1A5E                                   i2l2937 1A30  
                                 i2l2929 1A0C                                   i2l2947 1A6C  
                                 i2l2939 1A3E                                   i2l2949 1A70  
                          vfpfcnvrt@done 0011            __end_of_gpio_port_Write_logic 251A  
       __end_of_lcd_4bit_send_string_pos 2550                            ??_Timer0_Init 0004  
                             _Timer0_ISR 2550                   ?_lcd_4bit_send_command 000D  
                           vfprintf@cfmt 001B                                ??___awdiv 0007  
                              ??___awmod 0007                                   _keypad 0061  
                                 _memset 25EE                                   clear_0 2114  
                                 clear_1 2120                         ___awdiv@quotient 0009  
                        ___awmod@divisor 0005                                   isa$std 0001  
                        ___awmod@counter 0007                         ?_set_cursor_4bit 000F  
gpio_pin_direction_intialize@_pin_config 0003                                   fputc@c 0003  
                           __pdataCOMRAM 005E                             __mediumconst 0000  
                  ??_gpio_pin_Read_logic 0005                                   tblptrh 0FF7  
                                 tblptrl 0FF6                                   tblptru 0FF8  
                                 putch@c 0001                         __end_of_vfprintf 24E2  
                 ??_lcd_4bit_send_string 0012                                ??_sprintf 0020  
                        _InterruptManger 0008                 ?_send_4bit_enable_signal 000B  
                _Timer0_InterruptHandler 0046                    set_cursor_4bit@column 0011  
                             __accesstop 0080                  __end_of__initialization 2126  
               ??_convert_byte_to_string 002E                                ?_INT0_ISR 0001  
                              ?_INT1_ISR 0001                                ?_INT2_ISR 0001  
                          ___rparam_used 0001                           __pcstackCOMRAM 0001  
                  lcd_4bit_send_data@lcd 000D                             __pidataBANK0 261E  
                              ?_TMR0_ISR 0001                                ?_TMR1_ISR 0001  
                              ?_TMR2_ISR 0001                                ?_TMR3_ISR 0001  
                          __end_of_fputc 1F68                      __end_of_Timer0_Init 162A  
                          __end_of_putch 26E4                 lcd_4bit_send_command@lcd 000D  
             gpio_port_Write_logic@logic 0003                                  ??_fputc 0006  
                lcd_4bit_send_string@lcd 000F                  lcd_4bit_send_string@str 0010  
                                ??_putch 0003                               __pbssBANK0 00A7  
                  _INT0_InterruptHandler 0054                               ??_INT0_ISR 0001  
                             ??_INT1_ISR 0001                               ??_INT2_ISR 0001  
        keypad_intialize@columns_counter 000D                                ?_Set_Time 0001  
                            ?_Timer0_ISR 0001                               ??_TMR0_ISR 0001  
                             ??_TMR1_ISR 0001                               ??_TMR2_ISR 0001  
                             ??_TMR3_ISR 0001                                  ?_memset 0003  
                  __end_of_clock_setting 2246                ?_lcd_4bit_send_string_pos 0014  
                __end_of_InterruptManger 1A9C                             ?_write_clock 0001  
           __end_of_gpio_pin_Write_logic 19A6                                  i2u80_40 21D0  
                                i2u80_41 21CC                                  i2u81_40 21E6  
                                i2u81_41 21E2                                  i2u78_40 21A4  
                                i2u78_41 21A0                                  i2u79_40 21BA  
                                i2u79_41 21B6                        ?_keypad_get_value 000B  
                     ??_keypad_get_value 000D                           _tris_registers 0094  
   __end_of_keypad_value@ecu_keypad$F379 1011             _keypad_value@ecu_keypad$F379 1001  
                                _Line_H1 005D                                  _Line_H2 0078  
                                _Line_M1 0077                                  _Line_M2 0076  
                                _Line_S1 0075                                  _Line_S2 0074  
                             ??_Set_Time 002F                                  __Hparam 0000  
                            _Timer0_Init 14BE                                  __Lparam 0000  
                      ?_keypad_intialize 000A                       ??_keypad_intialize 000B  
                                ___awdiv 1D4A                                  ___awmod 1E0E  
                              ?_vfprintf 0018                             __psmallconst 1000  
                       Timer0_DeInit@obj 0003               __end_of_gpio_pin_intialize 229A  
                                __pcinit 20CE                                  __ramtop 1000  
                                __ptext0 269E                                  __ptext1 22EC  
                                __ptext2 229A                                  __ptext3 241E  
                                __ptext4 1C68                                  __ptext5 2246  
                                __ptext6 2130                                  __ptext7 1770  
                                __ptext8 21EC                                  __ptext9 1058  
                          _intialization 229A                                _T0CONbits 0FD5  
                              _T1CONbits 0FCD                                  _counter 005B  
                              _T2CONbits 0FCA                                _T3CONbits 0FB1  
                       ___awmod@dividend 0003                        __end_of_int_value 1012  
                      __end_of_send_4bit 241E                                  _sprintf 2586  
                         __pintcode_body 19A6                     end_of_initialization 2126  
                      ??_welcome_message 0019                                  fputc@fp 0005  
                                memset@c 0004                                  memset@n 0006  
                                memset@p 0008                                  int_func 19A6  
             __end_of_lcd_4bit_intialize 1D4A                   gpio_pin_Read_logic@ret 0009  
                ??_lcd_4bit_send_command 000F                    gpio_pin_intialize@ret 000D  
             __end_of_lcd_4bit_send_data 23D2                        __end_of_vfpfcnvrt 14BE  
                                postdec1 0FE5                                  postdec2 0FDD  
                                postinc0 0FEE                                  postinc1 0FE6  
                                postinc2 0FDE                         vfpfcnvrt@convarg 0013  
                             ??_vfprintf 001B                           ?_intialization 0001  
                  _INT1_InterruptHandler 0052                   _convert_byte_to_string 2460  
          gpio_pin_intialize@_pin_config 000B     __end_of_gpio_pin_direction_intialize 1896  
           _gpio_pin_direction_intialize 1770                         ?_InterruptManger 0001  
                  _gpio_port_Write_logic 24E2                     _gpio_pin_Write_logic 1896  
                 lcd_4bit_send_data@data 000E              lcd_4bit_send_string_pos@lcd 0014  
            lcd_4bit_send_string_pos@row 0015              lcd_4bit_send_string_pos@str 0017  
                  keypad_get_value@value 000C                              vfpfcnvrt@ap 000F  
                            vfpfcnvrt@cp 0012                              vfpfcnvrt@fp 000D  
                          __pidataCOMRAM 2668              __end_of_gpio_pin_Read_logic 1B84  
                         __end_of_memset 261E                      start_initialization 20CE  
                   _RB4_InterruptHandler 004E                              __end_of_abs 25EE  
          ?_gpio_pin_direction_intialize 0003                            _Timer0_DeInit 2684  
           __end_of_segment_write_number 20CE                      keypad_intialize@ret 000B  
                           ??_Timer0_ISR 0001                    ?_gpio_pin_Write_logic 0003  
                            vfprintf@fmt 0019                          ??_intialization 0012  
                            __pdataBANK0 0080                convert_byte_to_string@str 002D  
                               ??_memset 0008                               memset@dest 0003  
           lcd_4bit_send_command@command 000E              convert_byte_to_string@value 002E  
                            __pbssCOMRAM 0036                            __pcstackBANK0 00C7  
                        _setting_counter 005A                       __end_of_Timer0_ISR 2586  
                           send_4bit@lcd 000B                           ?_Timer0_DeInit 0003  
                  _INT2_InterruptHandler 0050          gpio_pin_direction_intialize@ret 0009  
                 ?_gpio_port_Write_logic 0003                             ?_Timer0_Init 0003  
                              __pintcode 0008                                 ?___awdiv 0003  
                               ?___awmod 0003                             _keypad_value 005C  
         gpio_pin_Read_logic@_pin_config 0003                          _welcome_message 22EC  
                            __smallconst 1000                                 ?_sprintf 001C  
                     _gpio_pin_intialize 2246                                _int_value 1011  
         ??_gpio_pin_direction_intialize 0004               keypad_intialize@keypad_obj 000A  
                              _send_4bit 23D2                                 _INT0_ISR 26DE  
                               _INT1_ISR 26DA                                 _INT2_ISR 26D6  
                    ?_gpio_pin_intialize 000B                                 _PIE1bits 0F9D  
                               _PIE2bits 0FA0                        ??_set_cursor_4bit 0012  
                 ??_gpio_pin_Write_logic 0005                                 i2u102_40 256C  
                               i2u102_41 2568                                 i2u103_48 2572  
                               i2u103_49 2584                              _lcd_counter 0058  
          __end_of_lcd_4bit_send_command 2386                                 i2u141_40 19BE  
                               i2u141_41 19BA                                 i2u150_40 1A4C  
                               i2u142_40 19CC                                 i2u150_41 1A48  
                               i2u142_41 19C8                                 i2u151_40 1A5E  
                               i2u143_40 19DE                                 i2u151_41 1A5A  
                               i2u143_41 19DA                                 i2u152_40 1A6C  
                               i2u144_40 19EC                                 i2u152_41 1A68  
                               i2u144_41 19E8                                 i2u153_40 1A7E  
                               i2u145_40 19FE                                 i2u153_41 1A7A  
                               i2u145_41 19FA                                 i2u154_40 1A8C  
                               i2u146_40 1A0C                                 i2u154_41 1A88  
                               i2u146_41 1A08                                 i2u147_40 1A1E  
                               i2u147_41 1A1A                                 i2u148_40 1A2C  
                               i2u148_41 1A28                                 i2u149_40 1A3E  
                               i2u149_41 1A3A                                 _PIR1bits 0F9E  
                               _PIR2bits 0FA1                     _RB5_InterruptHandler 004C  
                _send_4bit_enable_signal 2646                                 _TMR0_ISR 2190  
                               _TMR1_ISR 26C2                                 _TMR2_ISR 26CE  
                               _TMR3_ISR 26B6                  ?_convert_byte_to_string 002D  
                     _lcd_4bit_intialize 1C68                                _vfpfcnvrt 12FE  
               _lcd_4bit_send_string_pos 251A                          Set_Time@L_value 0035  
                   ??_gpio_pin_intialize 000C                       _lcd_4bit_send_data 2386  
                    ?_lcd_4bit_intialize 000F                     _segment_write_number 206A  
                        ??_Timer0_DeInit 0004                  segment_write_number@seg 000B  
                segment_write_number@ret 000D          keypad_get_value@columns_counter 0011  
                             vfpfcnvrt@c 0017                      ?_lcd_4bit_send_data 000D  
                            _INTCON2bits 0FF1                              _INTCON3bits 0FF0  
                              copy_data0 20E2                                copy_data1 2102  
                             ?_send_4bit 000B                               _EECON1bits 0FA6  
                   ??_lcd_4bit_intialize 0010                                 _Set_Time 1058  
                               __Hrparam 0000                               vfprintf@ap 001A  
                               __Lrparam 0000                               vfprintf@fp 0018  
         __end_of_convert_byte_to_string 24A2                     ??_lcd_4bit_send_data 000F  
                __end_of_welcome_message 233A                             _tmr0_preload 0044  
                             ?_vfpfcnvrt 000D                 gpio_pin_Read_logic@logic 0004  
                  _TMR1_InterruptHandler 0042                               sprintf@fmt 001D  
                  ?_segment_write_number 000B                            _clock_setting 21EC  
                               __ptext10 162A                                 __ptext11 206A  
                               __ptext20 1B84                                 __ptext12 24E2  
                               __ptext21 1896                                 __ptext13 251A  
                               __ptext30 1E0E                                 __ptext22 1A9C  
                               __ptext14 1F68                                 __ptext31 1D4A  
                               __ptext23 2460                                 __ptext15 233A  
                               __ptext40 26C2                                 __ptext32 25EE  
                               __ptext24 2586                                 __ptext16 1FF2  
                               __ptext41 26D6                                 __ptext33 14BE  
                               __ptext25 24A2                                 __ptext17 2386  
                               __ptext42 26DA                                 __ptext34 2684  
                               __ptext26 12FE                                 __ptext18 2646  
                               __ptext43 26DE                                 __ptext27 1EBE  
                               __ptext19 23D2                                 __ptext44 0000  
                               __ptext36 2550                                 __ptext28 26E2  
                               __ptext37 2190                                 __ptext29 25BA  
                               __ptext38 26B6                                 __ptext39 26CE  
              ??_send_4bit_enable_signal 000C                gpio_port_Write_logic@port 0006  
                       _keypad_get_value 1B84                                 isa$xinst 0000  
                               int$flags 0079             keypad_intialize@rows_counter 000C  
           __end_of_lcd_4bit_send_string 206A                                 _vfprintf 24A2  
                               main@argc 00C7                                 main@argv 00C9  
                         Timer0_Init@obj 0003                           ?_clock_setting 0001  
                            fp__TMR0_ISR 0000                            ??_write_clock 000E  
                             _INTCONbits 0FF2                         _keypad_intialize 2130  
                   _RB6_InterruptHandler 004A                                 intlevel2 0000  
                              sprintf@ap 0020                  ??_gpio_port_Write_logic 0004  
                           _TMR1_preload 0040               segment_write_number@number 000C  
                            ??_send_4bit 000D                             _TMR2_preload 0057  
                           _TMR3_preload 003A                          _display_counter 0059  
                       ?_welcome_message 0001          gpio_pin_Write_logic@_pin_config 0003  
                            ??_vfpfcnvrt 0010                    __end_of_intialization 22EC  
                 ??_segment_write_number 000D          __end_of_send_4bit_enable_signal 2668  
                               sprintf@f 0021                                 sprintf@s 001C  
                         _port_registers 0080                          _set_cursor_4bit 1F68  
                    __end_of_write_clock 1770                    _TMR2_InterruptHandler 003E  
             ??_lcd_4bit_send_string_pos 0019                        ??_InterruptManger 0001  
